# SymbolsHelper-Confirmed: 2.8.3 alpha amd64 arm64 armel armhf hppa hurd-i386 i386 ia64 kfreebsd-amd64 kfreebsd-i386 m68k mips mips64el mipsel powerpc powerpcspe ppc64 ppc64el riscv64 s390 s390x sh4 sparc sparc64 x32
libctpp2.so.2 libctpp2-2v5 #MINVER#
 _Z11safe_mallocPP14AllocatedBlockj@Base 2.8.3
 _Z8freedtoaPP14AllocatedBlock@Base 2.8.3
 _Z9ctpp_dtoaPP14AllocatedBlockPP6BigintdiiPiS5_PPc@Base 2.8.3
 _Z9safe_freePP14AllocatedBlock@Base 2.8.3
 _ZN4CTPP10DumpBuffer5WriteEPKcj@Base 2.8.3
 _ZN4CTPP10DumpBuffer7ReserveEj@Base 2.8.3
 _ZN4CTPP10DumpBufferC1Ev@Base 2.8.3
 _ZN4CTPP10DumpBufferC2Ev@Base 2.8.3
 _ZN4CTPP10DumpBufferD1Ev@Base 2.8.3
 _ZN4CTPP10DumpBufferD2Ev@Base 2.8.3
 _ZN4CTPP10FileLogger8WriteLogEjPKcj@Base 2.8.3
 _ZN4CTPP10FileLoggerC1EP8_IO_FILEj@Base 2.8.3
 _ZN4CTPP10FileLoggerC2EP8_IO_FILEj@Base 2.8.3
 _ZN4CTPP10FileLoggerD0Ev@Base 2.8.3
 _ZN4CTPP10FileLoggerD1Ev@Base 2.8.3
 _ZN4CTPP10FileLoggerD2Ev@Base 2.8.3
 _ZN4CTPP10FnHashKeys7HandlerEPNS_3CDTEjRS1_RNS_6LoggerE@Base 2.8.3
 _ZN4CTPP10FnHashKeysC1Ev@Base 2.8.3
 _ZN4CTPP10FnHashKeysC2Ev@Base 2.8.3
 _ZN4CTPP10FnHashKeysD0Ev@Base 2.8.3
 _ZN4CTPP10FnHashKeysD1Ev@Base 2.8.3
 _ZN4CTPP10FnHashKeysD2Ev@Base 2.8.3
 _ZN4CTPP10FnHostname7HandlerEPNS_3CDTEjRS1_RNS_6LoggerE@Base 2.8.3
 _ZN4CTPP10FnHostnameC1Ev@Base 2.8.3
 _ZN4CTPP10FnHostnameC2Ev@Base 2.8.3
 _ZN4CTPP10FnHostnameD0Ev@Base 2.8.3
 _ZN4CTPP10FnHostnameD1Ev@Base 2.8.3
 _ZN4CTPP10FnHostnameD2Ev@Base 2.8.3
 _ZN4CTPP10FnTruncate7HandlerEPNS_3CDTEjRS1_RNS_6LoggerE@Base 2.8.3
 _ZN4CTPP10FnTruncateC1Ev@Base 2.8.3
 _ZN4CTPP10FnTruncateC2Ev@Base 2.8.3
 _ZN4CTPP10FnTruncateD0Ev@Base 2.8.3
 _ZN4CTPP10FnTruncateD1Ev@Base 2.8.3
 _ZN4CTPP10FnTruncateD2Ev@Base 2.8.3
 _ZN4CTPP10HTMLEscapeERKNSt7__cxx1112basic_stringIcSt11char_traitsIcESaIcEEE@Base 2.8.3
 (optional=templinst)_ZN4CTPP10ScopeGuardIhED1Ev@Base 2.8.3
 (optional=templinst)_ZN4CTPP10ScopeGuardIhED2Ev@Base 2.8.3
 _ZN4CTPP10SortHelperC1ERKNS_3CDT17SortingComparatorE@Base 2.8.3
 _ZN4CTPP10SortHelperC2ERKNS_3CDT17SortingComparatorE@Base 2.8.3
 _ZN4CTPP10StaticData10StoreFloatEd@Base 2.8.3
 (subst)_ZN4CTPP10StaticData8StoreIntE{uint64_t}@Base 2.8.3
 _ZN4CTPP10StaticDataC1EPKNS_13StaticDataVarEj@Base 2.8.3
 _ZN4CTPP10StaticDataC1Ej@Base 2.8.3
 _ZN4CTPP10StaticDataC2EPKNS_13StaticDataVarEj@Base 2.8.3
 _ZN4CTPP10StaticDataC2Ej@Base 2.8.3
 _ZN4CTPP10StaticDataD1Ev@Base 2.8.3
 _ZN4CTPP10StaticDataD2Ev@Base 2.8.3
 _ZN4CTPP10StaticText9StoreDataEPKcj@Base 2.8.3
 _ZN4CTPP10StaticTextC1EPKcPKNS_13TextDataIndexEjj@Base 2.8.3
 _ZN4CTPP10StaticTextC1Ejj@Base 2.8.3
 _ZN4CTPP10StaticTextC2EPKcPKNS_13TextDataIndexEjj@Base 2.8.3
 _ZN4CTPP10StaticTextC2Ejj@Base 2.8.3
 _ZN4CTPP10StaticTextD1Ev@Base 2.8.3
 _ZN4CTPP10StaticTextD2Ev@Base 2.8.3
 _ZN4CTPP10VMArgStack10ClearStackEi@Base 2.8.3
 _ZN4CTPP10VMArgStack10GetElementEi@Base 2.8.3
 _ZN4CTPP10VMArgStack10PopElementEv@Base 2.8.3
 _ZN4CTPP10VMArgStack11PushElementERKNS_3CDTE@Base 2.8.3
 _ZN4CTPP10VMArgStack15SaveBasePointerEj@Base 2.8.3
 _ZN4CTPP10VMArgStack18RestoreBasePointerEv@Base 2.8.3
 _ZN4CTPP10VMArgStack5ResetEv@Base 2.8.3
 _ZN4CTPP10VMArgStackC1Ei@Base 2.8.3
 _ZN4CTPP10VMArgStackC2Ei@Base 2.8.3
 _ZN4CTPP10VMArgStackD1Ev@Base 2.8.3
 _ZN4CTPP10VMArgStackD2Ev@Base 2.8.3
 _ZN4CTPP11CTPP2Parser10IfOperatorENS_12CharIteratorIKcEES3_@Base 2.8.3
 _ZN4CTPP11CTPP2Parser10IsCloseTagENS_12CharIteratorIKcEES3_@Base 2.8.3
 _ZN4CTPP11CTPP2Parser10IsFuncNameENS_12CharIteratorIKcEES3_@Base 2.8.3
 _ZN4CTPP11CTPP2Parser10IsIteratorENS_12CharIteratorIKcEES3_@Base 2.8.3
 _ZN4CTPP11CTPP2Parser10IsOperatorENS_12CharIteratorIKcEES3_RNS0_14eCTPP2OperatorE@Base 2.8.3
 _ZN4CTPP11CTPP2Parser10IsRelationENS_12CharIteratorIKcEES3_RNS0_14eCTPP2RelationE@Base 2.8.3
 _ZN4CTPP11CTPP2Parser10ParseFloatERNS_12CharIteratorIKcEES4_@Base 2.8.3
 _ZN4CTPP11CTPP2Parser11IsLogicalOpENS_12CharIteratorIKcEES3_RNS0_10eCTPP2ArOpE@Base 2.8.3
 _ZN4CTPP11CTPP2Parser11VarOperatorENS_12CharIteratorIKcEES3_@Base 2.8.3
 _ZN4CTPP11CTPP2Parser12CallOperatorENS_12CharIteratorIKcEES3_@Base 2.8.3
 _ZN4CTPP11CTPP2Parser12IsSimpleExprENS_12CharIteratorIKcEES3_RNS0_18eCTPP2ExprOperatorE@Base 2.8.3
 _ZN4CTPP11CTPP2Parser12IsUnlessExprENS_12CharIteratorIKcEES3_RNS0_18eCTPP2ExprOperatorE@Base 2.8.3
 _ZN4CTPP11CTPP2Parser12IsWhiteSpaceENS_12CharIteratorIKcEES3_RKj@Base 2.8.3
 _ZN4CTPP11CTPP2Parser13BlockOperatorENS_12CharIteratorIKcEES3_@Base 2.8.3
 _ZN4CTPP11CTPP2Parser13BreakOperatorENS_12CharIteratorIKcEES3_@Base 2.8.3
 _ZN4CTPP11CTPP2Parser13IsForeachExprENS_12CharIteratorIKcEES3_Rj@Base 2.8.3
 _ZN4CTPP11CTPP2Parser13LogicalOrExprENS_12CharIteratorIKcEES3_RNS0_18eCTPP2ExprOperatorE@Base 2.8.3
 _ZN4CTPP11CTPP2Parser14LogicalAndExprENS_12CharIteratorIKcEES3_RNS0_18eCTPP2ExprOperatorE@Base 2.8.3
 _ZN4CTPP11CTPP2Parser14UnlessOperatorENS_12CharIteratorIKcEES3_@Base 2.8.3
 _ZN4CTPP11CTPP2Parser15CommentOperatorENS_12CharIteratorIKcEES3_@Base 2.8.3
 _ZN4CTPP11CTPP2Parser15ForeachOperatorENS_12CharIteratorIKcEES3_@Base 2.8.3
 _ZN4CTPP11CTPP2Parser15GetOperatorNameERKNS0_14eCTPP2OperatorE@Base 2.8.3
 _ZN4CTPP11CTPP2Parser15IncludeOperatorENS_12CharIteratorIKcEES3_@Base 2.8.3
 _ZN4CTPP11CTPP2Parser15VerboseOperatorENS_12CharIteratorIKcEES3_@Base 2.8.3
 _ZN4CTPP11CTPP2Parser15aCTPP2RelationsE@Base 2.8.3
 _ZN4CTPP11CTPP2Parser16IsForeachKeywordENS_12CharIteratorIKcEES3_@Base 2.8.3
 _ZN4CTPP11CTPP2Parser17CheckTrailingFlagERNS_12CharIteratorIKcEES3_@Base 2.8.3
 _ZN4CTPP11CTPP2Parser18SetBlockArgSizeMapERKSt3mapINSt7__cxx1112basic_stringIcSt11char_traitsIcESaIcEEEjSt4lessIS7_ESaISt4pairIKS7_jEEE@Base 2.8.3
 _ZN4CTPP11CTPP2Parser22RemoveTrailingNewLinesERNS_12CharIteratorIKcEES3_@Base 2.8.3
 _ZN4CTPP11CTPP2Parser23StoreIfComparisonResultENS_12CharIteratorIKcEERKNS0_18eCTPP2ExprOperatorE@Base 2.8.3
 _ZN4CTPP11CTPP2Parser27StoreUnlessComparisonResultENS_12CharIteratorIKcEERKNS0_18eCTPP2ExprOperatorE@Base 2.8.3
 _ZN4CTPP11CTPP2Parser5IsNumENS_12CharIteratorIKcEES3_@Base 2.8.3
 _ZN4CTPP11CTPP2Parser5IsVarENS_12CharIteratorIKcEES3_@Base 2.8.3
 _ZN4CTPP11CTPP2Parser5ParseENS_12CharIteratorIKcEES3_@Base 2.8.3
 _ZN4CTPP11CTPP2Parser6IsExprENS_12CharIteratorIKcEES3_RNS0_18eCTPP2ExprOperatorE@Base 2.8.3
 _ZN4CTPP11CTPP2Parser6IsFuncENS_12CharIteratorIKcEES3_RS3_Rj@Base 2.8.3
 _ZN4CTPP11CTPP2Parser6IsTermENS_12CharIteratorIKcEES3_RNS0_18eCTPP2ExprOperatorE@Base 2.8.3
 _ZN4CTPP11CTPP2Parser7CompileERKj@Base 2.8.3
 _ZN4CTPP11CTPP2Parser7IsAddOpENS_12CharIteratorIKcEES3_RNS0_10eCTPP2ArOpE@Base 2.8.3
 _ZN4CTPP11CTPP2Parser7IsMulOpENS_12CharIteratorIKcEES3_RNS0_10eCTPP2ArOpE@Base 2.8.3
 _ZN4CTPP11CTPP2Parser7RelExprENS_12CharIteratorIKcEES3_RNS0_18eCTPP2ExprOperatorE@Base 2.8.3
 _ZN4CTPP11CTPP2Parser8CallArgsENS_12CharIteratorIKcEES3_Rj@Base 2.8.3
 _ZN4CTPP11CTPP2Parser8IsFactorENS_12CharIteratorIKcEES3_RNS0_18eCTPP2ExprOperatorE@Base 2.8.3
 _ZN4CTPP11CTPP2Parser8IsIfExprENS_12CharIteratorIKcEES3_RNS0_18eCTPP2ExprOperatorE@Base 2.8.3
 _ZN4CTPP11CTPP2Parser8IsStringENS_12CharIteratorIKcEES3_@Base 2.8.3
 _ZN4CTPP11CTPP2Parser9BlockArgsENS_12CharIteratorIKcEES3_@Base 2.8.3
 _ZN4CTPP11CTPP2Parser9IsOpenTagENS_12CharIteratorIKcEES3_@Base 2.8.3
 _ZN4CTPP11CTPP2Parser9IsUnaryOpENS_12CharIteratorIKcEES3_RNS0_10eCTPP2ArOpE@Base 2.8.3
 _ZN4CTPP11CTPP2Parser9aKeywordsE@Base 2.8.3
 _ZN4CTPP11CTPP2ParserC1EPNS_17CTPP2SourceLoaderEPNS_13CTPP2CompilerERKNSt7__cxx1112basic_stringIcSt11char_traitsIcESaIcEEERKbi@Base 2.8.3
 _ZN4CTPP11CTPP2ParserC2EPNS_17CTPP2SourceLoaderEPNS_13CTPP2CompilerERKNSt7__cxx1112basic_stringIcSt11char_traitsIcESaIcEEERKbi@Base 2.8.3
 _ZN4CTPP11CTPP2ParserD1Ev@Base 2.8.3
 _ZN4CTPP11CTPP2ParserD2Ev@Base 2.8.3
 _ZN4CTPP11FnFormParam7HandlerEPNS_3CDTEjRS1_RNS_6LoggerE@Base 2.8.3
 _ZN4CTPP11FnFormParamC1Ev@Base 2.8.3
 _ZN4CTPP11FnFormParamC2Ev@Base 2.8.3
 _ZN4CTPP11FnFormParamD0Ev@Base 2.8.3
 _ZN4CTPP11FnFormParamD1Ev@Base 2.8.3
 _ZN4CTPP11FnFormParamD2Ev@Base 2.8.3
 _ZN4CTPP11FnHrefParam7HandlerEPNS_3CDTEjRS1_RNS_6LoggerE@Base 2.8.3
 _ZN4CTPP11FnHrefParamC1Ev@Base 2.8.3
 _ZN4CTPP11FnHrefParamC2Ev@Base 2.8.3
 _ZN4CTPP11FnHrefParamD0Ev@Base 2.8.3
 _ZN4CTPP11FnHrefParamD1Ev@Base 2.8.3
 _ZN4CTPP11FnHrefParamD2Ev@Base 2.8.3
 _ZN4CTPP11FnNumFormat7HandlerEPNS_3CDTEjRS1_RNS_6LoggerE@Base 2.8.3
 _ZN4CTPP11FnNumFormatC1Ev@Base 2.8.3
 _ZN4CTPP11FnNumFormatC2Ev@Base 2.8.3
 _ZN4CTPP11FnNumFormatD0Ev@Base 2.8.3
 _ZN4CTPP11FnNumFormatD1Ev@Base 2.8.3
 _ZN4CTPP11FnNumFormatD2Ev@Base 2.8.3
 _ZN4CTPP11FnSubstring7HandlerEPNS_3CDTEjRS1_RNS_6LoggerE@Base 2.8.3
 _ZN4CTPP11FnSubstringC1Ev@Base 2.8.3
 _ZN4CTPP11FnSubstringC2Ev@Base 2.8.3
 _ZN4CTPP11FnSubstringD0Ev@Base 2.8.3
 _ZN4CTPP11FnSubstringD1Ev@Base 2.8.3
 _ZN4CTPP11FnSubstringD2Ev@Base 2.8.3
 _ZN4CTPP11FnURIEscape7HandlerEPNS_3CDTEjRS1_RNS_6LoggerE@Base 2.8.3
 _ZN4CTPP11FnURIEscapeC1Ev@Base 2.8.3
 _ZN4CTPP11FnURIEscapeC2Ev@Base 2.8.3
 _ZN4CTPP11FnURIEscapeD0Ev@Base 2.8.3
 _ZN4CTPP11FnURIEscapeD1Ev@Base 2.8.3
 _ZN4CTPP11FnURIEscapeD2Ev@Base 2.8.3
 _ZN4CTPP11FnURLEscape7HandlerEPNS_3CDTEjRS1_RNS_6LoggerE@Base 2.8.3
 _ZN4CTPP11FnURLEscapeC1Ev@Base 2.8.3
 _ZN4CTPP11FnURLEscapeC2Ev@Base 2.8.3
 _ZN4CTPP11FnURLEscapeD0Ev@Base 2.8.3
 _ZN4CTPP11FnURLEscapeD1Ev@Base 2.8.3
 _ZN4CTPP11FnURLEscapeD2Ev@Base 2.8.3
 _ZN4CTPP11FnWMLEscape7HandlerEPNS_3CDTEjRS1_RNS_6LoggerE@Base 2.8.3
 _ZN4CTPP11FnWMLEscapeC1Ev@Base 2.8.3
 _ZN4CTPP11FnWMLEscapeC2Ev@Base 2.8.3
 _ZN4CTPP11FnWMLEscapeD0Ev@Base 2.8.3
 _ZN4CTPP11FnWMLEscapeD1Ev@Base 2.8.3
 _ZN4CTPP11FnWMLEscapeD2Ev@Base 2.8.3
 _ZN4CTPP11FnXMLEscape7HandlerEPNS_3CDTEjRS1_RNS_6LoggerE@Base 2.8.3
 _ZN4CTPP11FnXMLEscapeC1Ev@Base 2.8.3
 _ZN4CTPP11FnXMLEscapeC2Ev@Base 2.8.3
 _ZN4CTPP11FnXMLEscapeD0Ev@Base 2.8.3
 _ZN4CTPP11FnXMLEscapeD1Ev@Base 2.8.3
 _ZN4CTPP11FnXMLEscapeD2Ev@Base 2.8.3
 (subst)_ZN4CTPP11InvalidCallC1Ej{uint64_t}PKcS2_@Base 2.8.3
 (subst)_ZN4CTPP11InvalidCallC2Ej{uint64_t}PKcS2_@Base 2.8.3
 _ZN4CTPP11InvalidCallD0Ev@Base 2.8.3
 _ZN4CTPP11InvalidCallD1Ev@Base 2.8.3
 _ZN4CTPP11InvalidCallD2Ev@Base 2.8.3
 _ZN4CTPP11VMCodeStack10PopAddressEv@Base 2.8.3
 _ZN4CTPP11VMCodeStack11PushAddressEj@Base 2.8.3
 _ZN4CTPP11VMCodeStack5ResetEv@Base 2.8.3
 _ZN4CTPP11VMCodeStackC1Ei@Base 2.8.3
 _ZN4CTPP11VMCodeStackC2Ei@Base 2.8.3
 _ZN4CTPP11VMCodeStackD1Ev@Base 2.8.3
 _ZN4CTPP11VMCodeStackD2Ev@Base 2.8.3
 _ZN4CTPP11VMDebugInfoC1ERKNS_12CharIteratorIKcEEj@Base 2.8.3
 _ZN4CTPP11VMDebugInfoC1Ejjj@Base 2.8.3
 (subst)_ZN4CTPP11VMDebugInfoC1E{uint64_t}@Base 2.8.3
 _ZN4CTPP11VMDebugInfoC2ERKNS_12CharIteratorIKcEEj@Base 2.8.3
 _ZN4CTPP11VMDebugInfoC2Ejjj@Base 2.8.3
 (subst)_ZN4CTPP11VMDebugInfoC2E{uint64_t}@Base 2.8.3
 _ZN4CTPP11VMExceptionD0Ev@Base 2.8.3
 _ZN4CTPP11VMExceptionD1Ev@Base 2.8.3
 _ZN4CTPP11VMExceptionD2Ev@Base 2.8.3
 _ZN4CTPP11utf_charlenEPKcS1_@Base 2.8.3
 _ZN4CTPP12Base64DecodeERKNSt7__cxx1112basic_stringIcSt11char_traitsIcESaIcEEE@Base 2.8.3
 _ZN4CTPP12Base64EncodeERKNSt7__cxx1112basic_stringIcSt11char_traitsIcESaIcEEE@Base 2.8.3
 _ZN4CTPP12CTPP2GetText10ReadMODataEPKhi@Base 2.8.3
 _ZN4CTPP12CTPP2GetText11FindMessageERKNSt7__cxx1112basic_stringIcSt11char_traitsIcESaIcEEES8_S8_@Base 2.8.3
 _ZN4CTPP12CTPP2GetText11SetLanguageERNS_14SyscallFactoryERKNSt7__cxx1112basic_stringIcSt11char_traitsIcESaIcEEE@Base 2.8.3
 (arch=!alpha !amd64 !arm64 !armel !armhf !hppa !hurd-i386 !i386 !ia64 !kfreebsd-amd64 !kfreebsd-i386 !m68k !mips !mips64el !mipsel !powerpc !powerpcspe !ppc64 !ppc64el !riscv64 !s390 !s390x !sh4 !sparc64 !x32)_ZN4CTPP12CTPP2GetText12CTPP2CatalogD1Ev@Base 2.8.3
 (arch=!alpha !amd64 !arm64 !armel !armhf !hppa !hurd-i386 !i386 !ia64 !kfreebsd-amd64 !kfreebsd-i386 !m68k !mips !mips64el !mipsel !powerpc !powerpcspe !ppc64 !ppc64el !riscv64 !s390 !s390x !sh4 !sparc64 !x32)_ZN4CTPP12CTPP2GetText12CTPP2CatalogD2Ev@Base 2.8.3
 (arch=armel armhf hppa hurd-i386 i386 kfreebsd-i386 m68k mips mipsel powerpc powerpcspe sh4 x32)_ZN4CTPP12CTPP2GetText12IsLtOrGtExprERKNSt7__cxx1112basic_stringIcSt11char_traitsIcESaIcEEEj@Base 2.8.3
 (arch=!armel !armhf !hppa !hurd-i386 !i386 !kfreebsd-i386 !m68k !mips !mipsel !powerpc !powerpcspe !sh4 !x32)_ZN4CTPP12CTPP2GetText12IsLtOrGtExprERKNSt7__cxx1112basic_stringIcSt11char_traitsIcESaIcEEEm@Base 2.8.3
 (arch=armel armhf hppa hurd-i386 i386 kfreebsd-i386 m68k mips mipsel powerpc powerpcspe sh4 x32)_ZN4CTPP12CTPP2GetText13IsTernaryExprERKNSt7__cxx1112basic_stringIcSt11char_traitsIcESaIcEEEj@Base 2.8.3
 (arch=!armel !armhf !hppa !hurd-i386 !i386 !kfreebsd-i386 !m68k !mips !mipsel !powerpc !powerpcspe !sh4 !x32)_ZN4CTPP12CTPP2GetText13IsTernaryExprERKNSt7__cxx1112basic_stringIcSt11char_traitsIcESaIcEEEm@Base 2.8.3
 _ZN4CTPP12CTPP2GetText13ParseMetadataERKNSt7__cxx1112basic_stringIcSt11char_traitsIcESaIcEEE@Base 2.8.3
 _ZN4CTPP12CTPP2GetText14AddTranslationERKNSt7__cxx1112basic_stringIcSt11char_traitsIcESaIcEEES8_S8_@Base 2.8.3
 _ZN4CTPP12CTPP2GetText14ExtractMessageEPKhjii@Base 2.8.3
 _ZN4CTPP12CTPP2GetText16SetDefaultDomainERKNSt7__cxx1112basic_stringIcSt11char_traitsIcESaIcEEE@Base 2.8.3
 _ZN4CTPP12CTPP2GetText17FindPluralMessageERKNSt7__cxx1112basic_stringIcSt11char_traitsIcESaIcEEES8_S8_jS8_@Base 2.8.3
 _ZN4CTPP12CTPP2GetText17ParseMetadataLineERKNSt7__cxx1112basic_stringIcSt11char_traitsIcESaIcEEERS6_@Base 2.8.3
 _ZN4CTPP12CTPP2GetText18GeneratePluralRuleERKNSt7__cxx1112basic_stringIcSt11char_traitsIcESaIcEEE@Base 2.8.3
 _ZN4CTPP12CTPP2GetText18InitSTDLibFunctionERNS_14SyscallFactoryE@Base 2.8.3
 _ZN4CTPP12CTPP2GetText19CalculatePluralFormEjRKNSt7__cxx1112basic_stringIcSt11char_traitsIcESaIcEEES8_@Base 2.8.3
 _ZN4CTPP12CTPP2GetText20StringifyInstructionENS0_17eCTPP2InstructionE@Base 2.8.3
 (arch=armel armhf hppa hurd-i386 i386 kfreebsd-i386 m68k mips mipsel powerpc powerpcspe sh4 x32)_ZN4CTPP12CTPP2GetText6IsTermERKNSt7__cxx1112basic_stringIcSt11char_traitsIcESaIcEEEj@Base 2.8.3
 (arch=!armel !armhf !hppa !hurd-i386 !i386 !kfreebsd-i386 !m68k !mips !mipsel !powerpc !powerpcspe !sh4 !x32)_ZN4CTPP12CTPP2GetText6IsTermERKNSt7__cxx1112basic_stringIcSt11char_traitsIcESaIcEEEm@Base 2.8.3
 (arch=armel armhf hppa hurd-i386 i386 kfreebsd-i386 m68k mips mipsel powerpc powerpcspe sh4 x32)_ZN4CTPP12CTPP2GetText8IsEqExprERKNSt7__cxx1112basic_stringIcSt11char_traitsIcESaIcEEEj@Base 2.8.3
 (arch=!armel !armhf !hppa !hurd-i386 !i386 !kfreebsd-i386 !m68k !mips !mipsel !powerpc !powerpcspe !sh4 !x32)_ZN4CTPP12CTPP2GetText8IsEqExprERKNSt7__cxx1112basic_stringIcSt11char_traitsIcESaIcEEEm@Base 2.8.3
 (arch=armel armhf hppa hurd-i386 i386 kfreebsd-i386 m68k mips mipsel powerpc powerpcspe sh4 x32)_ZN4CTPP12CTPP2GetText8IsOrExprERKNSt7__cxx1112basic_stringIcSt11char_traitsIcESaIcEEEj@Base 2.8.3
 (arch=!armel !armhf !hppa !hurd-i386 !i386 !kfreebsd-i386 !m68k !mips !mipsel !powerpc !powerpcspe !sh4 !x32)_ZN4CTPP12CTPP2GetText8IsOrExprERKNSt7__cxx1112basic_stringIcSt11char_traitsIcESaIcEEEm@Base 2.8.3
 _ZN4CTPP12CTPP2GetText8ReadFileEPKcRj@Base 2.8.3
 (arch=armel armhf hppa hurd-i386 i386 kfreebsd-i386 m68k mips mipsel powerpc powerpcspe sh4 x32)_ZN4CTPP12CTPP2GetText9IsAndExprERKNSt7__cxx1112basic_stringIcSt11char_traitsIcESaIcEEEj@Base 2.8.3
 (arch=!armel !armhf !hppa !hurd-i386 !i386 !kfreebsd-i386 !m68k !mips !mipsel !powerpc !powerpcspe !sh4 !x32)_ZN4CTPP12CTPP2GetText9IsAndExprERKNSt7__cxx1112basic_stringIcSt11char_traitsIcESaIcEEEm@Base 2.8.3
 (arch=armel armhf hppa hurd-i386 i386 kfreebsd-i386 m68k mips mipsel powerpc powerpcspe sh4 x32)_ZN4CTPP12CTPP2GetText9IsModExprERKNSt7__cxx1112basic_stringIcSt11char_traitsIcESaIcEEEj@Base 2.8.3
 (arch=!armel !armhf !hppa !hurd-i386 !i386 !kfreebsd-i386 !m68k !mips !mipsel !powerpc !powerpcspe !sh4 !x32)_ZN4CTPP12CTPP2GetText9IsModExprERKNSt7__cxx1112basic_stringIcSt11char_traitsIcESaIcEEEm@Base 2.8.3
 _ZN4CTPP12CTPP2GetTextC1Ev@Base 2.8.3
 _ZN4CTPP12CTPP2GetTextC2Ev@Base 2.8.3
 _ZN4CTPP12CTPP2GetTextD1Ev@Base 2.8.3
 _ZN4CTPP12CTPP2GetTextD2Ev@Base 2.8.3
 (optional=templinst|arch=ia64)_ZN4CTPP12CharIteratorIKcEppEv@Base 2.8.3
 _ZN4CTPP12DumpCDT2JSONERKNS_3CDTERNS_10DumpBufferE@Base 2.8.3
 _ZN4CTPP12FnDateFormat7HandlerEPNS_3CDTEjRS1_RNS_6LoggerE@Base 2.8.3
 _ZN4CTPP12FnDateFormatC1Ev@Base 2.8.3
 _ZN4CTPP12FnDateFormatC2Ev@Base 2.8.3
 _ZN4CTPP12FnDateFormatD0Ev@Base 2.8.3
 _ZN4CTPP12FnDateFormatD1Ev@Base 2.8.3
 _ZN4CTPP12FnDateFormatD2Ev@Base 2.8.3
 _ZN4CTPP12FnHTMLEscape7HandlerEPNS_3CDTEjRS1_RNS_6LoggerE@Base 2.8.3
 _ZN4CTPP12FnHTMLEscapeC1Ev@Base 2.8.3
 _ZN4CTPP12FnHTMLEscapeC2Ev@Base 2.8.3
 _ZN4CTPP12FnHTMLEscapeD0Ev@Base 2.8.3
 _ZN4CTPP12FnHTMLEscapeD1Ev@Base 2.8.3
 _ZN4CTPP12FnHTMLEscapeD2Ev@Base 2.8.3
 _ZN4CTPP12FnJSONEscape7HandlerEPNS_3CDTEjRS1_RNS_6LoggerE@Base 2.8.3
 _ZN4CTPP12FnJSONEscapeC1Ev@Base 2.8.3
 _ZN4CTPP12FnJSONEscapeC2Ev@Base 2.8.3
 _ZN4CTPP12FnJSONEscapeD0Ev@Base 2.8.3
 _ZN4CTPP12FnJSONEscapeD1Ev@Base 2.8.3
 _ZN4CTPP12FnJSONEscapeD2Ev@Base 2.8.3
 _ZN4CTPP12FnMBTruncate7HandlerEPNS_3CDTEjRS1_RNS_6LoggerE@Base 2.8.3
 _ZN4CTPP12FnMBTruncateC1Ev@Base 2.8.3
 _ZN4CTPP12FnMBTruncateC2Ev@Base 2.8.3
 _ZN4CTPP12FnMBTruncateD0Ev@Base 2.8.3
 _ZN4CTPP12FnMBTruncateD1Ev@Base 2.8.3
 _ZN4CTPP12FnMBTruncateD2Ev@Base 2.8.3
 _ZN4CTPP12FormatStringERKNSt7__cxx1112basic_stringIcSt11char_traitsIcESaIcEEERS5_RKNS_3CDTE@Base 2.8.3
 _ZN4CTPP12StringBuffer5FlushEv@Base 2.8.3
 _ZN4CTPP12StringBuffer6AppendEPKcS2_@Base 2.8.3
 _ZN4CTPP12StringBuffer6AppendEPKcj@Base 2.8.3
 _ZN4CTPP12StringBuffer6AppendEjc@Base 2.8.3
 _ZN4CTPP12StringBufferC1ERNSt7__cxx1112basic_stringIcSt11char_traitsIcESaIcEEE@Base 2.8.3
 _ZN4CTPP12StringBufferC2ERNSt7__cxx1112basic_stringIcSt11char_traitsIcESaIcEEE@Base 2.8.3
 _ZN4CTPP12StringBufferD1Ev@Base 2.8.3
 _ZN4CTPP12StringBufferD2Ev@Base 2.8.3
 _ZN4CTPP12VMExecutable10GetCodeSegEPKS0_@Base 2.8.3
 _ZN4CTPP12VMExecutable13GetCallsTableEPKS0_@Base 2.8.3
 _ZN4CTPP12VMExecutable14GetSyscallsSegEPKS0_@Base 2.8.3
 _ZN4CTPP12VMExecutable16GetStaticDataSegEPKS0_@Base 2.8.3
 _ZN4CTPP12VMExecutable16GetStaticTextSegEPKS0_@Base 2.8.3
 _ZN4CTPP12VMExecutable18GetCallsTablePowerEPKS0_@Base 2.8.3
 _ZN4CTPP12VMExecutable19GetSyscallsIndexSegEPKS0_@Base 2.8.3
 _ZN4CTPP12VMExecutable21GetStaticDataBitIndexEPKS0_@Base 2.8.3
 _ZN4CTPP12VMExecutable21GetStaticTextIndexSegEPKS0_@Base 2.8.3
 _ZN4CTPP12VMFileLoaderC1EPKc@Base 2.8.3
 _ZN4CTPP12VMFileLoaderC2EPKc@Base 2.8.3
 _ZN4CTPP12VMFileLoaderD0Ev@Base 2.8.3
 _ZN4CTPP12VMFileLoaderD1Ev@Base 2.8.3
 _ZN4CTPP12VMFileLoaderD2Ev@Base 2.8.3
 _ZN4CTPP12VMMemoryCoreC1EPKNS_12VMExecutableE@Base 2.8.3
 _ZN4CTPP12VMMemoryCoreC2EPKNS_12VMExecutableE@Base 2.8.3
 (subst)_ZN4CTPP12ZeroDivisionC1Ej{uint64_t}PKc@Base 2.8.3
 (subst)_ZN4CTPP12ZeroDivisionC2Ej{uint64_t}PKc@Base 2.8.3
 _ZN4CTPP12ZeroDivisionD0Ev@Base 2.8.3
 _ZN4CTPP12ZeroDivisionD1Ev@Base 2.8.3
 _ZN4CTPP12ZeroDivisionD2Ev@Base 2.8.3
 _ZN4CTPP13CTPP2Compiler10ClearStackEjRKNS_11VMDebugInfoE@Base 2.8.3
 _ZN4CTPP13CTPP2Compiler10ExistARRegERKNS_11VMDebugInfoE@Base 2.8.3
 _ZN4CTPP13CTPP2Compiler10PushStringEPKcjRKNS_11VMDebugInfoE@Base 2.8.3
 _ZN4CTPP13CTPP2Compiler10ResetScopeEjRKNS_11VMDebugInfoE@Base 2.8.3
 _ZN4CTPP13CTPP2Compiler10StartBlockERKNSt7__cxx1112basic_stringIcSt11char_traitsIcESaIcEEERKNS_11VMDebugInfoE@Base 2.8.3
 _ZN4CTPP13CTPP2Compiler10UncondJumpEjRKNS_11VMDebugInfoE@Base 2.8.3
 _ZN4CTPP13CTPP2Compiler11ChangeScopeEPKcjRKNS_11VMDebugInfoE@Base 2.8.3
 _ZN4CTPP13CTPP2Compiler11PopVariableEiRKNS_11VMDebugInfoE@Base 2.8.3
 _ZN4CTPP13CTPP2Compiler11RUncondJumpEjRKNS_11VMDebugInfoE@Base 2.8.3
 _ZN4CTPP13CTPP2Compiler12GetSyscallIdEPKcj@Base 2.8.3
 _ZN4CTPP13CTPP2Compiler12IndirectCallERKNS_11VMDebugInfoE@Base 2.8.3
 _ZN4CTPP13CTPP2Compiler12PushVariableEPKcjRKNS_11VMDebugInfoE@Base 2.8.3
 _ZN4CTPP13CTPP2Compiler14ExecuteSyscallEPKcjjRKNS_11VMDebugInfoE@Base 2.8.3
 _ZN4CTPP13CTPP2Compiler14GetInstructionEj@Base 2.8.3
 _ZN4CTPP13CTPP2Compiler14OutputVariableERKNS_11VMDebugInfoE@Base 2.8.3
 _ZN4CTPP13CTPP2Compiler15StoreSourceNameEPKcj@Base 2.8.3
 _ZN4CTPP13CTPP2Compiler16OutputStaticDataEPKcjRKNS_11VMDebugInfoE@Base 2.8.3
 _ZN4CTPP13CTPP2Compiler16OutputStaticDataERKdRKNS_11VMDebugInfoE@Base 2.8.3
 (subst)_ZN4CTPP13CTPP2Compiler16OutputStaticDataERK{int64_t}RKNS_11VMDebugInfoE@Base 2.8.3
 _ZN4CTPP13CTPP2Compiler16PrepareCallBlockERKNS_11VMDebugInfoE@Base 2.8.3
 _ZN4CTPP13CTPP2Compiler17PrepareLocalScopeERKNS_11VMDebugInfoE@Base 2.8.3
 _ZN4CTPP13CTPP2Compiler17PushBlockVariableEjRKNS_11VMDebugInfoE@Base 2.8.3
 _ZN4CTPP13CTPP2Compiler17PushStackVariableEiRKNS_11VMDebugInfoE@Base 2.8.3
 _ZN4CTPP13CTPP2Compiler17RemoveInstructionEv@Base 2.8.3
 _ZN4CTPP13CTPP2Compiler18ExistStackVariableERKNS_11VMDebugInfoE@Base 2.8.3
 _ZN4CTPP13CTPP2Compiler18PushScopedVariableEPKcjS2_jRKNS_11VMDebugInfoE@Base 2.8.3
 _ZN4CTPP13CTPP2Compiler19StoreScopedVariableEPKcjRKNS_11VMDebugInfoE@Base 2.8.3
 _ZN4CTPP13CTPP2Compiler24ClearPushComplexVariableERKNS_11VMDebugInfoE@Base 2.8.3
 _ZN4CTPP13CTPP2Compiler26PreparePushComplexVariableERKNS_11VMDebugInfoE@Base 2.8.3
 _ZN4CTPP13CTPP2Compiler4HaltERKNS_11VMDebugInfoE@Base 2.8.3
 _ZN4CTPP13CTPP2Compiler5OpAddERKNS_11VMDebugInfoE@Base 2.8.3
 _ZN4CTPP13CTPP2Compiler5OpCmpERKNS_11VMDebugInfoE@Base 2.8.3
 _ZN4CTPP13CTPP2Compiler5OpDivERKNS_11VMDebugInfoE@Base 2.8.3
 _ZN4CTPP13CTPP2Compiler5OpModERKNS_11VMDebugInfoE@Base 2.8.3
 _ZN4CTPP13CTPP2Compiler5OpMulERKNS_11VMDebugInfoE@Base 2.8.3
 _ZN4CTPP13CTPP2Compiler5OpNegERKNS_11VMDebugInfoE@Base 2.8.3
 _ZN4CTPP13CTPP2Compiler5OpNotERKNS_11VMDebugInfoE@Base 2.8.3
 _ZN4CTPP13CTPP2Compiler5OpSubERKNS_11VMDebugInfoE@Base 2.8.3
 _ZN4CTPP13CTPP2Compiler6EQJumpEjRKNS_11VMDebugInfoE@Base 2.8.3
 _ZN4CTPP13CTPP2Compiler6GEJumpEjRKNS_11VMDebugInfoE@Base 2.8.3
 _ZN4CTPP13CTPP2Compiler6GTJumpEjRKNS_11VMDebugInfoE@Base 2.8.3
 _ZN4CTPP13CTPP2Compiler6LEJumpEjRKNS_11VMDebugInfoE@Base 2.8.3
 _ZN4CTPP13CTPP2Compiler6LTJumpEjRKNS_11VMDebugInfoE@Base 2.8.3
 _ZN4CTPP13CTPP2Compiler6NEJumpEjRKNS_11VMDebugInfoE@Base 2.8.3
 _ZN4CTPP13CTPP2Compiler6OpIDivERKNS_11VMDebugInfoE@Base 2.8.3
 _ZN4CTPP13CTPP2Compiler6OpSCmpERKNS_11VMDebugInfoE@Base 2.8.3
 (subst)_ZN4CTPP13CTPP2Compiler7PushIntERK{int64_t}RKNS_11VMDebugInfoE@Base 2.8.3
 _ZN4CTPP13CTPP2Compiler7REQJumpEjRKNS_11VMDebugInfoE@Base 2.8.3
 _ZN4CTPP13CTPP2Compiler7RGEJumpEjRKNS_11VMDebugInfoE@Base 2.8.3
 _ZN4CTPP13CTPP2Compiler7RGTJumpEjRKNS_11VMDebugInfoE@Base 2.8.3
 _ZN4CTPP13CTPP2Compiler7RLEJumpEjRKNS_11VMDebugInfoE@Base 2.8.3
 _ZN4CTPP13CTPP2Compiler7RLTJumpEjRKNS_11VMDebugInfoE@Base 2.8.3
 _ZN4CTPP13CTPP2Compiler7RNEJumpEjRKNS_11VMDebugInfoE@Base 2.8.3
 _ZN4CTPP13CTPP2Compiler8EndBlockEjRKNS_11VMDebugInfoE@Base 2.8.3
 _ZN4CTPP13CTPP2Compiler9CallBlockERKNSt7__cxx1112basic_stringIcSt11char_traitsIcESaIcEEERKbjRKNS_11VMDebugInfoE@Base 2.8.3
 _ZN4CTPP13CTPP2Compiler9DecrDepthEv@Base 2.8.3
 _ZN4CTPP13CTPP2Compiler9IncrDepthEv@Base 2.8.3
 _ZN4CTPP13CTPP2Compiler9PushFloatERKdRKNS_11VMDebugInfoE@Base 2.8.3
 _ZN4CTPP13CTPP2CompilerC1ERNS_17VMOpcodeCollectorERNS_10StaticTextERNS_10StaticDataES4_RNS_9HashTableE@Base 2.8.3
 _ZN4CTPP13CTPP2CompilerC2ERNS_17VMOpcodeCollectorERNS_10StaticTextERNS_10StaticDataES4_RNS_9HashTableE@Base 2.8.3
 _ZN4CTPP13CTPP2CompilerD1Ev@Base 2.8.3
 _ZN4CTPP13CTPP2CompilerD2Ev@Base 2.8.3
 _ZN4CTPP13CTPPExceptionD0Ev@Base 2.8.3
 _ZN4CTPP13CTPPExceptionD1Ev@Base 2.8.3
 _ZN4CTPP13CTPPExceptionD2Ev@Base 2.8.3
 _ZN4CTPP13FnListElement7HandlerEPNS_3CDTEjRS1_RNS_6LoggerE@Base 2.8.3
 _ZN4CTPP13FnListElementC1Ev@Base 2.8.3
 _ZN4CTPP13FnListElementC2Ev@Base 2.8.3
 _ZN4CTPP13FnListElementD0Ev@Base 2.8.3
 _ZN4CTPP13FnListElementD1Ev@Base 2.8.3
 _ZN4CTPP13FnListElementD2Ev@Base 2.8.3
 _ZN4CTPP13FnMBSubstring7HandlerEPNS_3CDTEjRS1_RNS_6LoggerE@Base 2.8.3
 _ZN4CTPP13FnMBSubstringC1Ev@Base 2.8.3
 _ZN4CTPP13FnMBSubstringC2Ev@Base 2.8.3
 _ZN4CTPP13FnMBSubstringD0Ev@Base 2.8.3
 _ZN4CTPP13FnMBSubstringD1Ev@Base 2.8.3
 _ZN4CTPP13FnMBSubstringD2Ev@Base 2.8.3
 (subst)_ZN4CTPP13IllegalOpcodeC1Ejj{uint64_t}PKc@Base 2.8.3
 (subst)_ZN4CTPP13IllegalOpcodeC2Ejj{uint64_t}PKc@Base 2.8.3
 _ZN4CTPP13IllegalOpcodeD0Ev@Base 2.8.3
 _ZN4CTPP13IllegalOpcodeD1Ev@Base 2.8.3
 _ZN4CTPP13IllegalOpcodeD2Ev@Base 2.8.3
 _ZN4CTPP13StackOverflowD0Ev@Base 2.8.3
 _ZN4CTPP13StackOverflowD1Ev@Base 2.8.3
 _ZN4CTPP13StackOverflowD2Ev@Base 2.8.3
 _ZN4CTPP13UnicodeToUTF8EjPh@Base 2.8.3
 _ZN4CTPP14CTPPLogicErrorC1EPKc@Base 2.8.3
 _ZN4CTPP14CTPPLogicErrorC2EPKc@Base 2.8.3
 _ZN4CTPP14CTPPLogicErrorD0Ev@Base 2.8.3
 _ZN4CTPP14CTPPLogicErrorD1Ev@Base 2.8.3
 _ZN4CTPP14CTPPLogicErrorD2Ev@Base 2.8.3
 _ZN4CTPP14DumpJSONStringERNS_10DumpBufferERKNSt7__cxx1112basic_stringIcSt11char_traitsIcESaIcEEERKbSB_@Base 2.8.3
 _ZN4CTPP14FnBase64Decode7HandlerEPNS_3CDTEjRS1_RNS_6LoggerE@Base 2.8.3
 _ZN4CTPP14FnBase64DecodeC1Ev@Base 2.8.3
 _ZN4CTPP14FnBase64DecodeC2Ev@Base 2.8.3
 _ZN4CTPP14FnBase64DecodeD0Ev@Base 2.8.3
 _ZN4CTPP14FnBase64DecodeD1Ev@Base 2.8.3
 _ZN4CTPP14FnBase64DecodeD2Ev@Base 2.8.3
 _ZN4CTPP14FnBase64Encode7HandlerEPNS_3CDTEjRS1_RNS_6LoggerE@Base 2.8.3
 _ZN4CTPP14FnBase64EncodeC1Ev@Base 2.8.3
 _ZN4CTPP14FnBase64EncodeC2Ev@Base 2.8.3
 _ZN4CTPP14FnBase64EncodeD0Ev@Base 2.8.3
 _ZN4CTPP14FnBase64EncodeD1Ev@Base 2.8.3
 _ZN4CTPP14FnBase64EncodeD2Ev@Base 2.8.3
 (subst)_ZN4CTPP14InvalidSyscallC1EPKcj{uint64_t}S2_@Base 2.8.3
 (subst)_ZN4CTPP14InvalidSyscallC2EPKcj{uint64_t}S2_@Base 2.8.3
 _ZN4CTPP14InvalidSyscallD0Ev@Base 2.8.3
 _ZN4CTPP14InvalidSyscallD1Ev@Base 2.8.3
 _ZN4CTPP14InvalidSyscallD2Ev@Base 2.8.3
 _ZN4CTPP14SimpleCompiler15_SimpleCompilerC1EPNS_8VMDumperE@Base 2.8.3
 _ZN4CTPP14SimpleCompiler15_SimpleCompilerC2EPNS_8VMDumperE@Base 2.8.3
 _ZN4CTPP14SimpleCompiler15_SimpleCompilerD1Ev@Base 2.8.3
 _ZN4CTPP14SimpleCompiler15_SimpleCompilerD2Ev@Base 2.8.3
 _ZN4CTPP14SimpleCompilerC1ERKNSt7__cxx1112basic_stringIcSt11char_traitsIcESaIcEEE@Base 2.8.3
 _ZN4CTPP14SimpleCompilerC2ERKNSt7__cxx1112basic_stringIcSt11char_traitsIcESaIcEEE@Base 2.8.3
 _ZN4CTPP14SimpleCompilerD1Ev@Base 2.8.3
 _ZN4CTPP14SimpleCompilerD2Ev@Base 2.8.3
 _ZN4CTPP14SortCompareNumC1ERKNS_3CDT17SortingComparator17eSortingDirectionE@Base 2.8.3
 _ZN4CTPP14SortCompareNumC2ERKNS_3CDT17SortingComparator17eSortingDirectionE@Base 2.8.3
 _ZN4CTPP14SortCompareNumD0Ev@Base 2.8.3
 _ZN4CTPP14SortCompareNumD1Ev@Base 2.8.3
 _ZN4CTPP14SortCompareNumD2Ev@Base 2.8.3
 _ZN4CTPP14SortCompareStrC1ERKNS_3CDT17SortingComparator17eSortingDirectionE@Base 2.8.3
 _ZN4CTPP14SortCompareStrC2ERKNS_3CDT17SortingComparator17eSortingDirectionE@Base 2.8.3
 _ZN4CTPP14SortCompareStrD0Ev@Base 2.8.3
 _ZN4CTPP14SortCompareStrD1Ev@Base 2.8.3
 _ZN4CTPP14SortCompareStrD2Ev@Base 2.8.3
 _ZN4CTPP14StackUnderflowD0Ev@Base 2.8.3
 _ZN4CTPP14StackUnderflowD1Ev@Base 2.8.3
 _ZN4CTPP14StackUnderflowD2Ev@Base 2.8.3
 _ZN4CTPP14SyscallFactory13RemoveHandlerEPKc@Base 2.8.3
 _ZN4CTPP14SyscallFactory15RegisterHandlerEPNS_14SyscallHandlerE@Base 2.8.3
 _ZN4CTPP14SyscallFactoryC1Ej@Base 2.8.3
 _ZN4CTPP14SyscallFactoryC2Ej@Base 2.8.3
 _ZN4CTPP14SyscallFactoryD1Ev@Base 2.8.3
 _ZN4CTPP14SyscallFactoryD2Ev@Base 2.8.3
 _ZN4CTPP14SyscallHandler11InitHandlerERNS_3CDTE@Base 2.8.3
 _ZN4CTPP14SyscallHandler14DestroyHandlerERNS_3CDTE@Base 2.8.3
 _ZN4CTPP14SyscallHandler15PreExecuteSetupERNS_15OutputCollectorERNS_3CDTERKNS_17ReducedStaticTextERKNS_17ReducedStaticDataES7_RNS_6LoggerE@Base 2.8.3
 _ZN4CTPP14SyscallHandlerD0Ev@Base 2.8.3
 _ZN4CTPP14SyscallHandlerD1Ev@Base 2.8.3
 _ZN4CTPP14SyscallHandlerD2Ev@Base 2.8.3
 _ZN4CTPP15CTPP2JSONParser12IsWhiteSpaceENS_12CharIteratorIKcEES3_RKj@Base 2.8.3
 _ZN4CTPP15CTPP2JSONParser24IsStringCompatOldVersionENS_12CharIteratorIKcEES3_@Base 2.8.3
 _ZN4CTPP15CTPP2JSONParser5IsKeyENS_12CharIteratorIKcEES3_RNSt7__cxx1112basic_stringIcSt11char_traitsIcESaIcEEE@Base 2.8.3
 _ZN4CTPP15CTPP2JSONParser5IsNumENS_12CharIteratorIKcEES3_@Base 2.8.3
 _ZN4CTPP15CTPP2JSONParser5IsVarENS_12CharIteratorIKcEES3_@Base 2.8.3
 _ZN4CTPP15CTPP2JSONParser5ParseENS_12CharIteratorIKcEES3_@Base 2.8.3
 _ZN4CTPP15CTPP2JSONParser7IsArrayENS_12CharIteratorIKcEES3_RNS_3CDTE@Base 2.8.3
 _ZN4CTPP15CTPP2JSONParser7IsValueENS_12CharIteratorIKcEES3_RNS_3CDTE@Base 2.8.3
 _ZN4CTPP15CTPP2JSONParser8IsObjectENS_12CharIteratorIKcEES3_RNS_3CDTE@Base 2.8.3
 _ZN4CTPP15CTPP2JSONParser8IsStringENS_12CharIteratorIKcEES3_@Base 2.8.3
 _ZN4CTPP15CTPP2JSONParserC1ERNS_3CDTE@Base 2.8.3
 _ZN4CTPP15CTPP2JSONParserC2ERNS_3CDTE@Base 2.8.3
 _ZN4CTPP15CTPP2JSONParserD1Ev@Base 2.8.3
 _ZN4CTPP15CTPP2JSONParserD2Ev@Base 2.8.3
 (arch=!alpha !amd64 !arm64 !armel !armhf !hppa !hurd-i386 !i386 !kfreebsd-amd64 !kfreebsd-i386 !m68k !mips !mips64el !mipsel !powerpc !powerpcspe !ppc64 !ppc64el !riscv64 !s390x !sh4 !sparc !sparc64 !x32)_ZN4CTPP15OutputCollectorD0Ev@Base 2.8.3
 (arch=!alpha !amd64 !arm64 !armel !armhf !hppa !hurd-i386 !i386 !kfreebsd-amd64 !kfreebsd-i386 !m68k !mips !mips64el !mipsel !powerpc !powerpcspe !ppc64 !ppc64el !riscv64 !s390x !sh4 !sparc !sparc64 !x32)_ZN4CTPP15OutputCollectorD1Ev@Base 2.8.3
 (arch=!alpha !amd64 !arm64 !armel !armhf !hppa !hurd-i386 !i386 !kfreebsd-amd64 !kfreebsd-i386 !m68k !mips !mips64el !mipsel !powerpc !powerpcspe !ppc64 !ppc64el !riscv64 !s390x !sh4 !sparc !sparc64 !x32)_ZN4CTPP15OutputCollectorD2Ev@Base 2.8.3
 _ZN4CTPP15ReducedBitIndexC1EPKNS_12BitIndexDataE@Base 2.8.3
 _ZN4CTPP15ReducedBitIndexC2EPKNS_12BitIndexDataE@Base 2.8.3
 _ZN4CTPP15ReducedBitIndexD1Ev@Base 2.8.3
 _ZN4CTPP15ReducedBitIndexD2Ev@Base 2.8.3
 _ZN4CTPP16CTPPGetTextErrorC1EPKc@Base 2.8.3
 _ZN4CTPP16CTPPGetTextErrorC2EPKc@Base 2.8.3
 _ZN4CTPP16CTPPGetTextErrorD0Ev@Base 2.8.3
 _ZN4CTPP16CTPPGetTextErrorD1Ev@Base 2.8.3
 _ZN4CTPP16CTPPGetTextErrorD2Ev@Base 2.8.3
 _ZN4CTPP16EscapeJSONStringERKNSt7__cxx1112basic_stringIcSt11char_traitsIcESaIcEEERKbS9_@Base 2.8.3
 _ZN4CTPP16ReducedHashTableC1EPKNS_11HashElementEj@Base 2.8.3
 _ZN4CTPP16ReducedHashTableC2EPKNS_11HashElementEj@Base 2.8.3
 _ZN4CTPP16ReducedHashTableD1Ev@Base 2.8.3
 _ZN4CTPP16ReducedHashTableD2Ev@Base 2.8.3
 _ZN4CTPP17CDTRangeExceptionD0Ev@Base 2.8.3
 _ZN4CTPP17CDTRangeExceptionD1Ev@Base 2.8.3
 _ZN4CTPP17CDTRangeExceptionD2Ev@Base 2.8.3
 (arch=!alpha !amd64 !arm64 !armel !armhf !hppa !hurd-i386 !i386 !kfreebsd-amd64 !kfreebsd-i386 !m68k !mips !mips64el !mipsel !powerpc !powerpcspe !ppc64 !ppc64el !riscv64 !s390x !sh4 !sparc !sparc64 !x32)_ZN4CTPP17CTPP2SourceLoaderD0Ev@Base 2.8.3
 (arch=!alpha !amd64 !arm64 !armel !armhf !hppa !hurd-i386 !i386 !kfreebsd-amd64 !kfreebsd-i386 !m68k !mips !mips64el !mipsel !powerpc !powerpcspe !ppc64 !ppc64el !riscv64 !s390x !sh4 !sparc !sparc64 !x32)_ZN4CTPP17CTPP2SourceLoaderD1Ev@Base 2.8.3
 (arch=!alpha !amd64 !arm64 !armel !armhf !hppa !hurd-i386 !i386 !kfreebsd-amd64 !kfreebsd-i386 !m68k !mips !mips64el !mipsel !powerpc !powerpcspe !ppc64 !ppc64el !riscv64 !s390x !sh4 !sparc !sparc64 !x32)_ZN4CTPP17CTPP2SourceLoaderD2Ev@Base 2.8.3
 _ZN4CTPP17CTPPNoMemoryErrorC1Ev@Base 2.8.3
 _ZN4CTPP17CTPPNoMemoryErrorC2Ev@Base 2.8.3
 _ZN4CTPP17CTPPNoMemoryErrorD0Ev@Base 2.8.3
 _ZN4CTPP17CTPPNoMemoryErrorD1Ev@Base 2.8.3
 _ZN4CTPP17CTPPNoMemoryErrorD2Ev@Base 2.8.3
 _ZN4CTPP17CTPPUnixExceptionC1EPKci@Base 2.8.3
 _ZN4CTPP17CTPPUnixExceptionC2EPKci@Base 2.8.3
 _ZN4CTPP17CTPPUnixExceptionD0Ev@Base 2.8.3
 _ZN4CTPP17CTPPUnixExceptionD1Ev@Base 2.8.3
 _ZN4CTPP17CTPPUnixExceptionD2Ev@Base 2.8.3
 _ZN4CTPP17ForeachFlagLockerC1ERb@Base 2.8.3
 _ZN4CTPP17ForeachFlagLockerC2ERb@Base 2.8.3
 _ZN4CTPP17ForeachFlagLockerD1Ev@Base 2.8.3
 _ZN4CTPP17ForeachFlagLockerD2Ev@Base 2.8.3
 _ZN4CTPP17ReducedStaticDataC1EPKNS_13StaticDataVarEj@Base 2.8.3
 _ZN4CTPP17ReducedStaticDataC2EPKNS_13StaticDataVarEj@Base 2.8.3
 _ZN4CTPP17ReducedStaticDataD1Ev@Base 2.8.3
 _ZN4CTPP17ReducedStaticDataD2Ev@Base 2.8.3
 _ZN4CTPP17ReducedStaticTextC1EPKcjPKNS_13TextDataIndexE@Base 2.8.3
 _ZN4CTPP17ReducedStaticTextC2EPKcjPKNS_13TextDataIndexE@Base 2.8.3
 _ZN4CTPP17ReducedStaticTextD1Ev@Base 2.8.3
 _ZN4CTPP17ReducedStaticTextD2Ev@Base 2.8.3
 _ZN4CTPP17STDLibInitializer10aSTDFNListE@Base 2.8.3
 _ZN4CTPP17STDLibInitializer11InitLibraryERNS_14SyscallFactoryE@Base 2.8.3
 _ZN4CTPP17STDLibInitializer13CreateHandlerEPKc@Base 2.8.3
 _ZN4CTPP17STDLibInitializer14DestroyHandlerEPNS_14SyscallHandlerE@Base 2.8.3
 _ZN4CTPP17STDLibInitializer14DestroyLibraryERNS_14SyscallFactoryE@Base 2.8.3
 _ZN4CTPP17STDLibInitializer9GetFnListEv@Base 2.8.3
 _ZN4CTPP17VMOpcodeCollector14GetInstructionERKj@Base 2.8.3
 _ZN4CTPP17VMOpcodeCollector6InsertERKNS_13VMInstructionE@Base 2.8.3
 _ZN4CTPP17VMOpcodeCollector6RemoveEv@Base 2.8.3
 _ZN4CTPP17VMOpcodeCollector7GetCodeERj@Base 2.8.3
 _ZN4CTPP17VMOpcodeCollectorD1Ev@Base 2.8.3
 _ZN4CTPP17VMOpcodeCollectorD2Ev@Base 2.8.3
 _ZN4CTPP18CDTAccessExceptionD0Ev@Base 2.8.3
 _ZN4CTPP18CDTAccessExceptionD1Ev@Base 2.8.3
 _ZN4CTPP18CDTAccessExceptionD2Ev@Base 2.8.3
 (subst)_ZN4CTPP18CodeSegmentOverrunC1Ej{uint64_t}PKc@Base 2.8.3
 (subst)_ZN4CTPP18CodeSegmentOverrunC2Ej{uint64_t}PKc@Base 2.8.3
 _ZN4CTPP18CodeSegmentOverrunD0Ev@Base 2.8.3
 _ZN4CTPP18CodeSegmentOverrunD1Ev@Base 2.8.3
 _ZN4CTPP18CodeSegmentOverrunD2Ev@Base 2.8.3
 _ZN4CTPP18DirtyRegistersFlagC1ERb@Base 2.8.3
 _ZN4CTPP18DirtyRegistersFlagC2ERb@Base 2.8.3
 _ZN4CTPP18DirtyRegistersFlagD1Ev@Base 2.8.3
 _ZN4CTPP18DirtyRegistersFlagD2Ev@Base 2.8.3
 _ZN4CTPP19CTPP2JSONFileParser5ParseEP8_IO_FILERKj@Base 2.8.3
 _ZN4CTPP19CTPP2JSONFileParser5ParseEPKc@Base 2.8.3
 _ZN4CTPP19CTPP2JSONFileParserC1ERNS_3CDTE@Base 2.8.3
 _ZN4CTPP19CTPP2JSONFileParserC2ERNS_3CDTE@Base 2.8.3
 _ZN4CTPP19CTPP2JSONFileParserD1Ev@Base 2.8.3
 _ZN4CTPP19CTPP2JSONFileParserD2Ev@Base 2.8.3
 _ZN4CTPP19CTPPParserExceptionD0Ev@Base 2.8.3
 _ZN4CTPP19CTPPParserExceptionD1Ev@Base 2.8.3
 _ZN4CTPP19CTPPParserExceptionD2Ev@Base 2.8.3
 _ZN4CTPP19FileOutputCollector7CollectEPKvj@Base 2.8.3
 _ZN4CTPP19FileOutputCollectorC1EP8_IO_FILE@Base 2.8.3
 _ZN4CTPP19FileOutputCollectorC1EPKcS2_@Base 2.8.3
 _ZN4CTPP19FileOutputCollectorC2EP8_IO_FILE@Base 2.8.3
 _ZN4CTPP19FileOutputCollectorC2EPKcS2_@Base 2.8.3
 _ZN4CTPP19FileOutputCollectorD0Ev@Base 2.8.3
 _ZN4CTPP19FileOutputCollectorD1Ev@Base 2.8.3
 _ZN4CTPP19FileOutputCollectorD2Ev@Base 2.8.3
 _ZN4CTPP20CDTTypeCastExceptionC1EPKc@Base 2.8.3
 _ZN4CTPP20CDTTypeCastExceptionC2EPKc@Base 2.8.3
 _ZN4CTPP20CDTTypeCastExceptionD0Ev@Base 2.8.3
 _ZN4CTPP20CDTTypeCastExceptionD1Ev@Base 2.8.3
 _ZN4CTPP20CDTTypeCastExceptionD2Ev@Base 2.8.3
 _ZN4CTPP21CTPP2FileSourceLoader11GetTemplateERj@Base 2.8.3
 _ZN4CTPP21CTPP2FileSourceLoader12LoadTemplateEPKc@Base 2.8.3
 _ZN4CTPP21CTPP2FileSourceLoader14SetIncludeDirsERKSt6vectorINSt7__cxx1112basic_stringIcSt11char_traitsIcESaIcEEESaIS7_EE@Base 2.8.3
 _ZN4CTPP21CTPP2FileSourceLoader5CloneEv@Base 2.8.3
 _ZN4CTPP21CTPP2FileSourceLoaderC1Ev@Base 2.8.3
 _ZN4CTPP21CTPP2FileSourceLoaderC2Ev@Base 2.8.3
 _ZN4CTPP21CTPP2FileSourceLoaderD0Ev@Base 2.8.3
 _ZN4CTPP21CTPP2FileSourceLoaderD1Ev@Base 2.8.3
 _ZN4CTPP21CTPP2FileSourceLoaderD2Ev@Base 2.8.3
 _ZN4CTPP21CTPPParserSyntaxErrorC1EPKcjj@Base 2.8.3
 _ZN4CTPP21CTPPParserSyntaxErrorC2EPKcjj@Base 2.8.3
 _ZN4CTPP21CTPPParserSyntaxErrorD0Ev@Base 2.8.3
 _ZN4CTPP21CTPPParserSyntaxErrorD1Ev@Base 2.8.3
 _ZN4CTPP21CTPPParserSyntaxErrorD2Ev@Base 2.8.3
 (subst)_ZN4CTPP21ExecutionLimitReachedC1Ej{uint64_t}PKc@Base 2.8.3
 (subst)_ZN4CTPP21ExecutionLimitReachedC2Ej{uint64_t}PKc@Base 2.8.3
 _ZN4CTPP21ExecutionLimitReachedD0Ev@Base 2.8.3
 _ZN4CTPP21ExecutionLimitReachedD1Ev@Base 2.8.3
 _ZN4CTPP21ExecutionLimitReachedD2Ev@Base 2.8.3
 _ZN4CTPP21StreamOutputCollector7CollectEPKvj@Base 2.8.3
 _ZN4CTPP21StreamOutputCollectorC1ERSo@Base 2.8.3
 _ZN4CTPP21StreamOutputCollectorC2ERSo@Base 2.8.3
 _ZN4CTPP21StreamOutputCollectorD0Ev@Base 2.8.3
 _ZN4CTPP21StreamOutputCollectorD1Ev@Base 2.8.3
 _ZN4CTPP21StreamOutputCollectorD2Ev@Base 2.8.3
 _ZN4CTPP21StringOutputCollector7CollectEPKvj@Base 2.8.3
 _ZN4CTPP21StringOutputCollectorC1ERNSt7__cxx1112basic_stringIcSt11char_traitsIcESaIcEEE@Base 2.8.3
 _ZN4CTPP21StringOutputCollectorC2ERNSt7__cxx1112basic_stringIcSt11char_traitsIcESaIcEEE@Base 2.8.3
 _ZN4CTPP21StringOutputCollectorD0Ev@Base 2.8.3
 _ZN4CTPP21StringOutputCollectorD1Ev@Base 2.8.3
 _ZN4CTPP21StringOutputCollectorD2Ev@Base 2.8.3
 _ZN4CTPP24CTPPNullPointerExceptionC1EPKc@Base 2.8.3
 _ZN4CTPP24CTPPNullPointerExceptionC2EPKc@Base 2.8.3
 _ZN4CTPP24CTPPNullPointerExceptionD0Ev@Base 2.8.3
 _ZN4CTPP24CTPPNullPointerExceptionD1Ev@Base 2.8.3
 _ZN4CTPP24CTPPNullPointerExceptionD2Ev@Base 2.8.3
 _ZN4CTPP25SortCompareNumHashElementC1ERKNSt7__cxx1112basic_stringIcSt11char_traitsIcESaIcEEERKNS_3CDT17SortingComparator17eSortingDirectionE@Base 2.8.3
 _ZN4CTPP25SortCompareNumHashElementC2ERKNSt7__cxx1112basic_stringIcSt11char_traitsIcESaIcEEERKNS_3CDT17SortingComparator17eSortingDirectionE@Base 2.8.3
 _ZN4CTPP25SortCompareNumHashElementD0Ev@Base 2.8.3
 _ZN4CTPP25SortCompareNumHashElementD1Ev@Base 2.8.3
 _ZN4CTPP25SortCompareNumHashElementD2Ev@Base 2.8.3
 _ZN4CTPP25SortCompareStrHashElementC1ERKNSt7__cxx1112basic_stringIcSt11char_traitsIcESaIcEEERKNS_3CDT17SortingComparator17eSortingDirectionE@Base 2.8.3
 _ZN4CTPP25SortCompareStrHashElementC2ERKNSt7__cxx1112basic_stringIcSt11char_traitsIcESaIcEEERKNS_3CDT17SortingComparator17eSortingDirectionE@Base 2.8.3
 _ZN4CTPP25SortCompareStrHashElementD0Ev@Base 2.8.3
 _ZN4CTPP25SortCompareStrHashElementD1Ev@Base 2.8.3
 _ZN4CTPP25SortCompareStrHashElementD2Ev@Base 2.8.3
 _ZN4CTPP26CTPPCharsetRecodeExceptionC1EPKcS2_@Base 2.8.3
 _ZN4CTPP26CTPPCharsetRecodeExceptionC2EPKcS2_@Base 2.8.3
 _ZN4CTPP26CTPPCharsetRecodeExceptionD0Ev@Base 2.8.3
 _ZN4CTPP26CTPPCharsetRecodeExceptionD1Ev@Base 2.8.3
 _ZN4CTPP26CTPPCharsetRecodeExceptionD2Ev@Base 2.8.3
 _ZN4CTPP26SortCompareNumArrayElementC1EjRKNS_3CDT17SortingComparator17eSortingDirectionE@Base 2.8.3
 _ZN4CTPP26SortCompareNumArrayElementC2EjRKNS_3CDT17SortingComparator17eSortingDirectionE@Base 2.8.3
 _ZN4CTPP26SortCompareNumArrayElementD0Ev@Base 2.8.3
 _ZN4CTPP26SortCompareNumArrayElementD1Ev@Base 2.8.3
 _ZN4CTPP26SortCompareNumArrayElementD2Ev@Base 2.8.3
 _ZN4CTPP26SortCompareStrArrayElementC1EjRKNS_3CDT17SortingComparator17eSortingDirectionE@Base 2.8.3
 _ZN4CTPP26SortCompareStrArrayElementC2EjRKNS_3CDT17SortingComparator17eSortingDirectionE@Base 2.8.3
 _ZN4CTPP26SortCompareStrArrayElementD0Ev@Base 2.8.3
 _ZN4CTPP26SortCompareStrArrayElementD1Ev@Base 2.8.3
 _ZN4CTPP26SortCompareStrArrayElementD2Ev@Base 2.8.3
 _ZN4CTPP26StringIconvOutputCollector7CollectEPKvj@Base 2.8.3
 _ZN4CTPP26StringIconvOutputCollectorC1ERNSt7__cxx1112basic_stringIcSt11char_traitsIcESaIcEEERKS6_S9_j@Base 2.8.3
 _ZN4CTPP26StringIconvOutputCollectorC2ERNSt7__cxx1112basic_stringIcSt11char_traitsIcESaIcEEERKS6_S9_j@Base 2.8.3
 _ZN4CTPP26StringIconvOutputCollectorD0Ev@Base 2.8.3
 _ZN4CTPP26StringIconvOutputCollectorD1Ev@Base 2.8.3
 _ZN4CTPP26StringIconvOutputCollectorD2Ev@Base 2.8.3
 _ZN4CTPP27CTPPParserOperatorsMismatchC1EPKcS2_jj@Base 2.8.3
 _ZN4CTPP27CTPPParserOperatorsMismatchC2EPKcS2_jj@Base 2.8.3
 _ZN4CTPP27CTPPParserOperatorsMismatchD0Ev@Base 2.8.3
 _ZN4CTPP27CTPPParserOperatorsMismatchD1Ev@Base 2.8.3
 _ZN4CTPP27CTPPParserOperatorsMismatchD2Ev@Base 2.8.3
 _ZN4CTPP2VM18CheckStackOnlyRegsEjjPKNS_12VMMemoryCoreEj@Base 2.8.3
 _ZN4CTPP2VM3RunEPKNS_12VMMemoryCoreEPNS_15OutputCollectorERjRNS_3CDTEPNS_6LoggerE@Base 2.8.3
 _ZN4CTPP2VM4InitEPKNS_12VMMemoryCoreEPNS_15OutputCollectorEPNS_6LoggerE@Base 2.8.3
 _ZN4CTPP2VM5ResetEv@Base 2.8.3
 _ZN4CTPP2VMC1EPNS_14SyscallFactoryEjjjj@Base 2.8.3
 _ZN4CTPP2VMC2EPNS_14SyscallFactoryEjjjj@Base 2.8.3
 _ZN4CTPP2VMD1Ev@Base 2.8.3
 _ZN4CTPP2VMD2Ev@Base 2.8.3
 _ZN4CTPP3CDT10GetPointerEv@Base 2.8.3
 _ZN4CTPP3CDT13ConstIteratorC1ERKNS0_8IteratorE@Base 2.8.3
 _ZN4CTPP3CDT13ConstIteratorC1ERKS1_@Base 2.8.3
 _ZN4CTPP3CDT13ConstIteratorC2ERKNS0_8IteratorE@Base 2.8.3
 _ZN4CTPP3CDT13ConstIteratorC2ERKS1_@Base 2.8.3
 _ZN4CTPP3CDT13ConstIteratoraSERKNS0_8IteratorE@Base 2.8.3
 _ZN4CTPP3CDT13ConstIteratoraSERKS1_@Base 2.8.3
 _ZN4CTPP3CDT13ConstIteratorppEi@Base 2.8.3
 _ZN4CTPP3CDT13ConstIteratorppEv@Base 2.8.3
 _ZN4CTPP3CDT13PrintableTypeENS0_8eValTypeE@Base 2.8.3
 _ZN4CTPP3CDT17SortingComparatorD0Ev@Base 2.8.3
 _ZN4CTPP3CDT17SortingComparatorD1Ev@Base 2.8.3
 _ZN4CTPP3CDT17SortingComparatorD2Ev@Base 2.8.3
 _ZN4CTPP3CDT2AtERKNSt7__cxx1112basic_stringIcSt11char_traitsIcESaIcEEE@Base 2.8.3
 _ZN4CTPP3CDT2AtEj@Base 2.8.3
 _ZN4CTPP3CDT3EndEv@Base 2.8.3
 _ZN4CTPP3CDT4FindERKNSt7__cxx1112basic_stringIcSt11char_traitsIcESaIcEEE@Base 2.8.3
 _ZN4CTPP3CDT4SwapERS0_@Base 2.8.3
 _ZN4CTPP3CDT4_CDTC1Ev@Base 2.8.3
 _ZN4CTPP3CDT4_CDTC2Ev@Base 2.8.3
 _ZN4CTPP3CDT5BeginEv@Base 2.8.3
 _ZN4CTPP3CDT5EraseERKNSt7__cxx1112basic_stringIcSt11char_traitsIcESaIcEEE@Base 2.8.3
 _ZN4CTPP3CDT5ToIntEv@Base 2.8.3
 _ZN4CTPP3CDT6AppendEPKci@Base 2.8.3
 _ZN4CTPP3CDT6AppendERKNSt7__cxx1112basic_stringIcSt11char_traitsIcESaIcEEE@Base 2.8.3
 _ZN4CTPP3CDT6AppendERKS0_@Base 2.8.3
 _ZN4CTPP3CDT6AppendEd@Base 2.8.3
 _ZN4CTPP3CDT6AppendEi@Base 2.8.3
 _ZN4CTPP3CDT6AppendEj@Base 2.8.3
 (subst)_ZN4CTPP3CDT6AppendE{int64_t}@Base 2.8.3
 (subst)_ZN4CTPP3CDT6AppendE{uint64_t}@Base 2.8.3
 _ZN4CTPP3CDT6ConcatEPKci@Base 2.8.3
 _ZN4CTPP3CDT6ConcatERKNSt7__cxx1112basic_stringIcSt11char_traitsIcESaIcEEE@Base 2.8.3
 _ZN4CTPP3CDT7DestroyEv@Base 2.8.3
 _ZN4CTPP3CDT7PrependEPKci@Base 2.8.3
 _ZN4CTPP3CDT7PrependERKNSt7__cxx1112basic_stringIcSt11char_traitsIcESaIcEEE@Base 2.8.3
 _ZN4CTPP3CDT7PrependERKS0_@Base 2.8.3
 _ZN4CTPP3CDT7PrependEd@Base 2.8.3
 _ZN4CTPP3CDT7PrependEi@Base 2.8.3
 _ZN4CTPP3CDT7PrependEj@Base 2.8.3
 (subst)_ZN4CTPP3CDT7PrependE{int64_t}@Base 2.8.3
 (subst)_ZN4CTPP3CDT7PrependE{uint64_t}@Base 2.8.3
 _ZN4CTPP3CDT7ToFloatEv@Base 2.8.3
 _ZN4CTPP3CDT7UnshareEv@Base 2.8.3
 _ZN4CTPP3CDT8DumpDataEjjRKS0_RNSt7__cxx1112basic_stringIcSt11char_traitsIcESaIcEEEb@Base 2.8.3
 _ZN4CTPP3CDT8IteratorC1ERKS1_@Base 2.8.3
 _ZN4CTPP3CDT8IteratorC1ESt17_Rb_tree_iteratorISt4pairIKNSt7__cxx1112basic_stringIcSt11char_traitsIcESaIcEEES0_EE@Base 2.8.3
 _ZN4CTPP3CDT8IteratorC2ERKS1_@Base 2.8.3
 _ZN4CTPP3CDT8IteratorC2ESt17_Rb_tree_iteratorISt4pairIKNSt7__cxx1112basic_stringIcSt11char_traitsIcESaIcEEES0_EE@Base 2.8.3
 _ZN4CTPP3CDT8IteratoraSERKS1_@Base 2.8.3
 _ZN4CTPP3CDT8IteratoreqERKS1_@Base 2.8.3
 _ZN4CTPP3CDT8IteratorneERKS1_@Base 2.8.3
 _ZN4CTPP3CDT8IteratorppEi@Base 2.8.3
 _ZN4CTPP3CDT8IteratorppEv@Base 2.8.3
 _ZN4CTPP3CDT8IteratorptB5cxx11Ev@Base 2.8.3
 _ZN4CTPP3CDT8MergeCDTERKS0_RKNS0_14eMergeStrategyE@Base 2.8.3
 _ZN4CTPP3CDT8MergeCDTERS0_RKS0_RKNS0_14eMergeStrategyE@Base 2.8.3
 _ZN4CTPP3CDT8PushBackEPKc@Base 2.8.3
 _ZN4CTPP3CDT8PushBackERKNSt7__cxx1112basic_stringIcSt11char_traitsIcESaIcEEE@Base 2.8.3
 _ZN4CTPP3CDT8PushBackERKS0_@Base 2.8.3
 _ZN4CTPP3CDT8PushBackEd@Base 2.8.3
 _ZN4CTPP3CDT8PushBackEi@Base 2.8.3
 _ZN4CTPP3CDT8PushBackEj@Base 2.8.3
 (subst)_ZN4CTPP3CDT8PushBackE{int64_t}@Base 2.8.3
 (subst)_ZN4CTPP3CDT8PushBackE{uint64_t}@Base 2.8.3
 _ZN4CTPP3CDT8ToStringB5cxx11EPKc@Base 2.8.3
 _ZN4CTPP3CDT9SortArrayERKNS0_17SortingComparatorE@Base 2.8.3
 _ZN4CTPP3CDTC1EPKc@Base 2.8.3
 _ZN4CTPP3CDTC1EPv@Base 2.8.3
 _ZN4CTPP3CDTC1ERKNS0_8eValTypeE@Base 2.8.3
 _ZN4CTPP3CDTC1ERKNSt7__cxx1112basic_stringIcSt11char_traitsIcESaIcEEE@Base 2.8.3
 _ZN4CTPP3CDTC1ERKS0_@Base 2.8.3
 _ZN4CTPP3CDTC1Ed@Base 2.8.3
 _ZN4CTPP3CDTC1Ei@Base 2.8.3
 _ZN4CTPP3CDTC1Ej@Base 2.8.3
 (subst)_ZN4CTPP3CDTC1E{int64_t}@Base 2.8.3
 (subst)_ZN4CTPP3CDTC1E{uint64_t}@Base 2.8.3
 _ZN4CTPP3CDTC2EPKc@Base 2.8.3
 _ZN4CTPP3CDTC2EPv@Base 2.8.3
 _ZN4CTPP3CDTC2ERKNS0_8eValTypeE@Base 2.8.3
 _ZN4CTPP3CDTC2ERKNSt7__cxx1112basic_stringIcSt11char_traitsIcESaIcEEE@Base 2.8.3
 _ZN4CTPP3CDTC2ERKS0_@Base 2.8.3
 _ZN4CTPP3CDTC2Ed@Base 2.8.3
 _ZN4CTPP3CDTC2Ei@Base 2.8.3
 _ZN4CTPP3CDTC2Ej@Base 2.8.3
 (subst)_ZN4CTPP3CDTC2E{int64_t}@Base 2.8.3
 (subst)_ZN4CTPP3CDTC2E{uint64_t}@Base 2.8.3
 _ZN4CTPP3CDTD1Ev@Base 2.8.3
 _ZN4CTPP3CDTD2Ev@Base 2.8.3
 _ZN4CTPP3CDTaSEPKc@Base 2.8.3
 _ZN4CTPP3CDTaSEPv@Base 2.8.3
 _ZN4CTPP3CDTaSERKNSt7__cxx1112basic_stringIcSt11char_traitsIcESaIcEEE@Base 2.8.3
 _ZN4CTPP3CDTaSERKS0_@Base 2.8.3
 _ZN4CTPP3CDTaSEd@Base 2.8.3
 _ZN4CTPP3CDTaSEi@Base 2.8.3
 _ZN4CTPP3CDTaSEj@Base 2.8.3
 (subst)_ZN4CTPP3CDTaSE{int64_t}@Base 2.8.3
 (subst)_ZN4CTPP3CDTaSE{uint64_t}@Base 2.8.3
 _ZN4CTPP3CDTdVERKS0_@Base 2.8.3
 _ZN4CTPP3CDTdVEd@Base 2.8.3
 _ZN4CTPP3CDTdVEi@Base 2.8.3
 _ZN4CTPP3CDTdVEj@Base 2.8.3
 (subst)_ZN4CTPP3CDTdVE{int64_t}@Base 2.8.3
 (subst)_ZN4CTPP3CDTdVE{uint64_t}@Base 2.8.3
 _ZN4CTPP3CDTixERKNSt7__cxx1112basic_stringIcSt11char_traitsIcESaIcEEE@Base 2.8.3
 _ZN4CTPP3CDTixEj@Base 2.8.3
 _ZN4CTPP3CDTmIERKS0_@Base 2.8.3
 _ZN4CTPP3CDTmIEd@Base 2.8.3
 _ZN4CTPP3CDTmIEi@Base 2.8.3
 _ZN4CTPP3CDTmIEj@Base 2.8.3
 (subst)_ZN4CTPP3CDTmIE{int64_t}@Base 2.8.3
 (subst)_ZN4CTPP3CDTmIE{uint64_t}@Base 2.8.3
 _ZN4CTPP3CDTmLERKS0_@Base 2.8.3
 _ZN4CTPP3CDTmLEd@Base 2.8.3
 _ZN4CTPP3CDTmLEi@Base 2.8.3
 _ZN4CTPP3CDTmLEj@Base 2.8.3
 (subst)_ZN4CTPP3CDTmLE{int64_t}@Base 2.8.3
 (subst)_ZN4CTPP3CDTmLE{uint64_t}@Base 2.8.3
 _ZN4CTPP3CDTmmEi@Base 2.8.3
 _ZN4CTPP3CDTmmEv@Base 2.8.3
 _ZN4CTPP3CDTpLERKS0_@Base 2.8.3
 _ZN4CTPP3CDTpLEd@Base 2.8.3
 _ZN4CTPP3CDTpLEi@Base 2.8.3
 _ZN4CTPP3CDTpLEj@Base 2.8.3
 (subst)_ZN4CTPP3CDTpLE{int64_t}@Base 2.8.3
 (subst)_ZN4CTPP3CDTpLE{uint64_t}@Base 2.8.3
 _ZN4CTPP3CDTppEi@Base 2.8.3
 _ZN4CTPP3CDTppEv@Base 2.8.3
 _ZN4CTPP5FnAvg7HandlerEPNS_3CDTEjRS1_RNS_6LoggerE@Base 2.8.3
 _ZN4CTPP5FnAvgC1Ev@Base 2.8.3
 _ZN4CTPP5FnAvgC2Ev@Base 2.8.3
 _ZN4CTPP5FnAvgD0Ev@Base 2.8.3
 _ZN4CTPP5FnAvgD1Ev@Base 2.8.3
 _ZN4CTPP5FnAvgD2Ev@Base 2.8.3
 _ZN4CTPP5FnLog7HandlerEPNS_3CDTEjRS1_RNS_6LoggerE@Base 2.8.3
 _ZN4CTPP5FnLogC1Ev@Base 2.8.3
 _ZN4CTPP5FnLogC2Ev@Base 2.8.3
 _ZN4CTPP5FnLogD0Ev@Base 2.8.3
 _ZN4CTPP5FnLogD1Ev@Base 2.8.3
 _ZN4CTPP5FnLogD2Ev@Base 2.8.3
 _ZN4CTPP5FnMax7HandlerEPNS_3CDTEjRS1_RNS_6LoggerE@Base 2.8.3
 _ZN4CTPP5FnMaxC1Ev@Base 2.8.3
 _ZN4CTPP5FnMaxC2Ev@Base 2.8.3
 _ZN4CTPP5FnMaxD0Ev@Base 2.8.3
 _ZN4CTPP5FnMaxD1Ev@Base 2.8.3
 _ZN4CTPP5FnMaxD2Ev@Base 2.8.3
 _ZN4CTPP5FnMin7HandlerEPNS_3CDTEjRS1_RNS_6LoggerE@Base 2.8.3
 _ZN4CTPP5FnMinC1Ev@Base 2.8.3
 _ZN4CTPP5FnMinC2Ev@Base 2.8.3
 _ZN4CTPP5FnMinD0Ev@Base 2.8.3
 _ZN4CTPP5FnMinD1Ev@Base 2.8.3
 _ZN4CTPP5FnMinD2Ev@Base 2.8.3
 _ZN4CTPP5crc32EPKhRKj@Base 2.8.3
 _ZN4CTPP6FnCast7HandlerEPNS_3CDTEjRS1_RNS_6LoggerE@Base 2.8.3
 _ZN4CTPP6FnCastC1Ev@Base 2.8.3
 _ZN4CTPP6FnCastC2Ev@Base 2.8.3
 _ZN4CTPP6FnCastD0Ev@Base 2.8.3
 _ZN4CTPP6FnCastD1Ev@Base 2.8.3
 _ZN4CTPP6FnCastD2Ev@Base 2.8.3
 _ZN4CTPP6FnJSON7HandlerEPNS_3CDTEjRS1_RNS_6LoggerE@Base 2.8.3
 _ZN4CTPP6FnJSONC1Ev@Base 2.8.3
 _ZN4CTPP6FnJSONC2Ev@Base 2.8.3
 _ZN4CTPP6FnJSOND0Ev@Base 2.8.3
 _ZN4CTPP6FnJSOND1Ev@Base 2.8.3
 _ZN4CTPP6FnJSOND2Ev@Base 2.8.3
 _ZN4CTPP6FnList7HandlerEPNS_3CDTEjRS1_RNS_6LoggerE@Base 2.8.3
 _ZN4CTPP6FnListC1Ev@Base 2.8.3
 _ZN4CTPP6FnListC2Ev@Base 2.8.3
 _ZN4CTPP6FnListD0Ev@Base 2.8.3
 _ZN4CTPP6FnListD1Ev@Base 2.8.3
 _ZN4CTPP6FnListD2Ev@Base 2.8.3
 _ZN4CTPP6FnSize7HandlerEPNS_3CDTEjRS1_RNS_6LoggerE@Base 2.8.3
 _ZN4CTPP6FnSizeC1Ev@Base 2.8.3
 _ZN4CTPP6FnSizeC2Ev@Base 2.8.3
 _ZN4CTPP6FnSizeD0Ev@Base 2.8.3
 _ZN4CTPP6FnSizeD1Ev@Base 2.8.3
 _ZN4CTPP6FnSizeD2Ev@Base 2.8.3
 (arch=alpha sh4)_ZN4CTPP6Logger10LogMessageEjPKc13__va_list_tag@Base 2.8.3
 (arch=amd64 kfreebsd-amd64 powerpc powerpcspe s390 s390x x32)_ZN4CTPP6Logger10LogMessageEjPKcP13__va_list_tag@Base 2.8.3
 (arch=hurd-i386 i386 kfreebsd-i386 ppc64 ppc64el)_ZN4CTPP6Logger10LogMessageEjPKcPc@Base 2.8.3
 (arch=hppa ia64 m68k mips mips64 mips64el mipsel riscv64 sparc sparc64)_ZN4CTPP6Logger10LogMessageEjPKcPv@Base 2.8.3
 (arch=arm64 armel armhf)_ZN4CTPP6Logger10LogMessageEjPKcSt9__va_list@Base 2.8.3
 _ZN4CTPP6Logger10LogMessageEjPKcz@Base 2.8.3
 _ZN4CTPP6Logger11SetPriorityEj@Base 2.8.3
 _ZN4CTPP6Logger3ErrEPKcz@Base 2.8.3
 _ZN4CTPP6Logger4CritEPKcz@Base 2.8.3
 _ZN4CTPP6Logger4InfoEPKcz@Base 2.8.3
 _ZN4CTPP6Logger4WarnEPKcz@Base 2.8.3
 _ZN4CTPP6Logger5AlertEPKcz@Base 2.8.3
 _ZN4CTPP6Logger5DebugEPKcz@Base 2.8.3
 _ZN4CTPP6Logger5EmergEPKcz@Base 2.8.3
 _ZN4CTPP6Logger5ErrorEPKcz@Base 2.8.3
 _ZN4CTPP6Logger6NoticeEPKcz@Base 2.8.3
 _ZN4CTPP6Logger7WarningEPKcz@Base 2.8.3
 _ZN4CTPP6LoggerC1Ej@Base 2.8.3
 _ZN4CTPP6LoggerC2Ej@Base 2.8.3
 _ZN4CTPP6LoggerD0Ev@Base 2.8.3
 _ZN4CTPP6LoggerD1Ev@Base 2.8.3
 _ZN4CTPP6LoggerD2Ev@Base 2.8.3
 _ZN4CTPP6Swap32ERKj@Base 2.8.3
 (subst)_ZN4CTPP6Swap64ERK{uint64_t}@Base 2.8.3
 _ZN4CTPP7FnError7HandlerEPNS_3CDTEjRS1_RNS_6LoggerE@Base 2.8.3
 _ZN4CTPP7FnErrorC1Ev@Base 2.8.3
 _ZN4CTPP7FnErrorC2Ev@Base 2.8.3
 _ZN4CTPP7FnErrorD0Ev@Base 2.8.3
 _ZN4CTPP7FnErrorD1Ev@Base 2.8.3
 _ZN4CTPP7FnErrorD2Ev@Base 2.8.3
 _ZN4CTPP7FnIconv7HandlerEPNS_3CDTEjRS1_RNS_6LoggerE@Base 2.8.3
 _ZN4CTPP7FnIconvC1Ev@Base 2.8.3
 _ZN4CTPP7FnIconvC2Ev@Base 2.8.3
 _ZN4CTPP7FnIconvD0Ev@Base 2.8.3
 _ZN4CTPP7FnIconvD1Ev@Base 2.8.3
 _ZN4CTPP7FnIconvD2Ev@Base 2.8.3
 _ZN4CTPP7FnInSet7HandlerEPNS_3CDTEjRS1_RNS_6LoggerE@Base 2.8.3
 _ZN4CTPP7FnInSetC1Ev@Base 2.8.3
 _ZN4CTPP7FnInSetC2Ev@Base 2.8.3
 _ZN4CTPP7FnInSetD0Ev@Base 2.8.3
 _ZN4CTPP7FnInSetD1Ev@Base 2.8.3
 _ZN4CTPP7FnInSetD2Ev@Base 2.8.3
 _ZN4CTPP8BitIndex14ResizeBitIndexERKj@Base 2.8.3
 _ZN4CTPP8BitIndex6SetBitEjc@Base 2.8.3
 _ZN4CTPP8BitIndexC1Ej@Base 2.8.3
 _ZN4CTPP8BitIndexC2Ej@Base 2.8.3
 _ZN4CTPP8BitIndexD1Ev@Base 2.8.3
 _ZN4CTPP8BitIndexD2Ev@Base 2.8.3
 _ZN4CTPP8CDT2JSONERKNS_3CDTERNSt7__cxx1112basic_stringIcSt11char_traitsIcESaIcEEE@Base 2.8.3
 _ZN4CTPP8FnConcat7HandlerEPNS_3CDTEjRS1_RNS_6LoggerE@Base 2.8.3
 _ZN4CTPP8FnConcatC1Ev@Base 2.8.3
 _ZN4CTPP8FnConcatC2Ev@Base 2.8.3
 _ZN4CTPP8FnConcatD0Ev@Base 2.8.3
 _ZN4CTPP8FnConcatD1Ev@Base 2.8.3
 _ZN4CTPP8FnConcatD2Ev@Base 2.8.3
 _ZN4CTPP8FnMBSize7HandlerEPNS_3CDTEjRS1_RNS_6LoggerE@Base 2.8.3
 _ZN4CTPP8FnMBSizeC1Ev@Base 2.8.3
 _ZN4CTPP8FnMBSizeC2Ev@Base 2.8.3
 _ZN4CTPP8FnMBSizeD0Ev@Base 2.8.3
 _ZN4CTPP8FnMBSizeD1Ev@Base 2.8.3
 _ZN4CTPP8FnMBSizeD2Ev@Base 2.8.3
 _ZN4CTPP8FnRandom7HandlerEPNS_3CDTEjRS1_RNS_6LoggerE@Base 2.8.3
 _ZN4CTPP8FnRandomC1Ev@Base 2.8.3
 _ZN4CTPP8FnRandomC2Ev@Base 2.8.3
 _ZN4CTPP8FnRandomD0Ev@Base 2.8.3
 _ZN4CTPP8FnRandomD1Ev@Base 2.8.3
 _ZN4CTPP8FnRandomD2Ev@Base 2.8.3
 _ZN4CTPP8HashFuncEPKcj@Base 2.8.3
 _ZN4CTPP8SimpleVM3RunERNS_3CDTEPKNS_12VMMemoryCoreEP8_IO_FILERNS_6LoggerE@Base 2.8.3
 _ZN4CTPP8SimpleVM3RunERNS_3CDTEPKNS_12VMMemoryCoreERNS_15OutputCollectorERNS_6LoggerE@Base 2.8.3
 _ZN4CTPP8SimpleVM3RunERNS_3CDTEPKNS_12VMMemoryCoreERNSt7__cxx1112basic_stringIcSt11char_traitsIcESaIcEEERNS_6LoggerE@Base 2.8.3
 _ZN4CTPP8SimpleVM3RunERNS_3CDTERKNS_8VMLoaderEP8_IO_FILERNS_6LoggerE@Base 2.8.3
 _ZN4CTPP8SimpleVM3RunERNS_3CDTERKNS_8VMLoaderERNS_15OutputCollectorERNS_6LoggerE@Base 2.8.3
 _ZN4CTPP8SimpleVM3RunERNS_3CDTERKNS_8VMLoaderERNSt7__cxx1112basic_stringIcSt11char_traitsIcESaIcEEERNS_6LoggerE@Base 2.8.3
 _ZN4CTPP8SimpleVM9_SimpleVMC1ERKjS3_S3_S3_S3_@Base 2.8.3
 _ZN4CTPP8SimpleVM9_SimpleVMC2ERKjS3_S3_S3_S3_@Base 2.8.3
 _ZN4CTPP8SimpleVM9_SimpleVMD1Ev@Base 2.8.3
 _ZN4CTPP8SimpleVM9_SimpleVMD2Ev@Base 2.8.3
 _ZN4CTPP8SimpleVMC1ERKjS2_S2_S2_S2_@Base 2.8.3
 _ZN4CTPP8SimpleVMC2ERKjS2_S2_S2_S2_@Base 2.8.3
 _ZN4CTPP8SimpleVMD1Ev@Base 2.8.3
 _ZN4CTPP8SimpleVMD2Ev@Base 2.8.3
 _ZN4CTPP8VMDumper13GetExecutableERj@Base 2.8.3
 _ZN4CTPP8VMDumperC1ERKNS_12VMMemoryCoreE@Base 2.8.3
 _ZN4CTPP8VMDumperC1EjPKNS_13VMInstructionERKNS_10StaticTextERKNS_10StaticDataES6_RKNS_9HashTableE@Base 2.8.3
 _ZN4CTPP8VMDumperC2ERKNS_12VMMemoryCoreE@Base 2.8.3
 _ZN4CTPP8VMDumperC2EjPKNS_13VMInstructionERKNS_10StaticTextERKNS_10StaticDataES6_RKNS_9HashTableE@Base 2.8.3
 _ZN4CTPP8VMDumperD1Ev@Base 2.8.3
 _ZN4CTPP8VMDumperD2Ev@Base 2.8.3
 (arch=!alpha !amd64 !arm64 !armel !armhf !hppa !hurd-i386 !i386 !kfreebsd-amd64 !kfreebsd-i386 !m68k !mips !mips64el !mipsel !powerpc !powerpcspe !ppc64 !ppc64el !riscv64 !s390x !sh4 !sparc !sparc64 !x32)_ZN4CTPP8VMLoaderD0Ev@Base 2.8.3
 (arch=!alpha !amd64 !arm64 !armel !armhf !hppa !hurd-i386 !i386 !kfreebsd-amd64 !kfreebsd-i386 !m68k !mips !mips64el !mipsel !powerpc !powerpcspe !ppc64 !ppc64el !riscv64 !s390x !sh4 !sparc !sparc64 !x32)_ZN4CTPP8VMLoaderD1Ev@Base 2.8.3
 (arch=!alpha !amd64 !arm64 !armel !armhf !hppa !hurd-i386 !i386 !kfreebsd-amd64 !kfreebsd-i386 !m68k !mips !mips64el !mipsel !powerpc !powerpcspe !ppc64 !ppc64el !riscv64 !s390x !sh4 !sparc !sparc64 !x32)_ZN4CTPP8VMLoaderD2Ev@Base 2.8.3
 _ZN4CTPP9CTPPErrorC1ERKNSt7__cxx1112basic_stringIcSt11char_traitsIcESaIcEEES8_jjjj@Base 2.8.3
 _ZN4CTPP9CTPPErrorC2ERKNSt7__cxx1112basic_stringIcSt11char_traitsIcESaIcEEES8_jjjj@Base 2.8.3
 _ZN4CTPP9FnContext15PreExecuteSetupERNS_15OutputCollectorERNS_3CDTERKNS_17ReducedStaticTextERKNS_17ReducedStaticDataES7_RNS_6LoggerE@Base 2.8.3
 _ZN4CTPP9FnContext7HandlerEPNS_3CDTEjRS1_RNS_6LoggerE@Base 2.8.3
 _ZN4CTPP9FnContextC1Ev@Base 2.8.3
 _ZN4CTPP9FnContextC2Ev@Base 2.8.3
 _ZN4CTPP9FnContextD0Ev@Base 2.8.3
 _ZN4CTPP9FnContextD1Ev@Base 2.8.3
 _ZN4CTPP9FnContextD2Ev@Base 2.8.3
 _ZN4CTPP9FnDefault7HandlerEPNS_3CDTEjRS1_RNS_6LoggerE@Base 2.8.3
 _ZN4CTPP9FnDefaultC1Ev@Base 2.8.3
 _ZN4CTPP9FnDefaultC2Ev@Base 2.8.3
 _ZN4CTPP9FnDefaultD0Ev@Base 2.8.3
 _ZN4CTPP9FnDefaultD1Ev@Base 2.8.3
 _ZN4CTPP9FnDefaultD2Ev@Base 2.8.3
 _ZN4CTPP9FnDefined7HandlerEPNS_3CDTEjRS1_RNS_6LoggerE@Base 2.8.3
 _ZN4CTPP9FnDefinedC1Ev@Base 2.8.3
 _ZN4CTPP9FnDefinedC2Ev@Base 2.8.3
 _ZN4CTPP9FnDefinedD0Ev@Base 2.8.3
 _ZN4CTPP9FnDefinedD1Ev@Base 2.8.3
 _ZN4CTPP9FnDefinedD2Ev@Base 2.8.3
 _ZN4CTPP9FnEmitter15PreExecuteSetupERNS_15OutputCollectorERNS_3CDTERKNS_17ReducedStaticTextERKNS_17ReducedStaticDataES7_RNS_6LoggerE@Base 2.8.3
 _ZN4CTPP9FnEmitter7HandlerEPNS_3CDTEjRS1_RNS_6LoggerE@Base 2.8.3
 _ZN4CTPP9FnEmitterC1Ev@Base 2.8.3
 _ZN4CTPP9FnEmitterC2Ev@Base 2.8.3
 _ZN4CTPP9FnEmitterD0Ev@Base 2.8.3
 _ZN4CTPP9FnEmitterD1Ev@Base 2.8.3
 _ZN4CTPP9FnEmitterD2Ev@Base 2.8.3
 _ZN4CTPP9FnGetText10SetGetTextEPNS_12CTPP2GetTextE@Base 2.8.3
 _ZN4CTPP9FnGetText11SetLanguageERKNSt7__cxx1112basic_stringIcSt11char_traitsIcESaIcEEE@Base 2.8.3
 _ZN4CTPP9FnGetText7HandlerEPNS_3CDTEjRS1_RNS_6LoggerE@Base 2.8.3
 _ZN4CTPP9FnGetTextC1EPKc@Base 2.8.3
 _ZN4CTPP9FnGetTextC2EPKc@Base 2.8.3
 _ZN4CTPP9FnGetTextD0Ev@Base 2.8.3
 _ZN4CTPP9FnGetTextD1Ev@Base 2.8.3
 _ZN4CTPP9FnGetTextD2Ev@Base 2.8.3
 _ZN4CTPP9FnGetType7HandlerEPNS_3CDTEjRS1_RNS_6LoggerE@Base 2.8.3
 _ZN4CTPP9FnGetTypeC1Ev@Base 2.8.3
 _ZN4CTPP9FnGetTypeC2Ev@Base 2.8.3
 _ZN4CTPP9FnGetTypeD0Ev@Base 2.8.3
 _ZN4CTPP9FnGetTypeD1Ev@Base 2.8.3
 _ZN4CTPP9FnGetTypeD2Ev@Base 2.8.3
 _ZN4CTPP9FnInArray7HandlerEPNS_3CDTEjRS1_RNS_6LoggerE@Base 2.8.3
 _ZN4CTPP9FnInArrayC1Ev@Base 2.8.3
 _ZN4CTPP9FnInArrayC2Ev@Base 2.8.3
 _ZN4CTPP9FnInArrayD0Ev@Base 2.8.3
 _ZN4CTPP9FnInArrayD1Ev@Base 2.8.3
 _ZN4CTPP9FnInArrayD2Ev@Base 2.8.3
 _ZN4CTPP9FnObjDump15PreExecuteSetupERNS_15OutputCollectorERNS_3CDTERKNS_17ReducedStaticTextERKNS_17ReducedStaticDataES7_RNS_6LoggerE@Base 2.8.3
 _ZN4CTPP9FnObjDump7HandlerEPNS_3CDTEjRS1_RNS_6LoggerE@Base 2.8.3
 _ZN4CTPP9FnObjDumpC1Ev@Base 2.8.3
 _ZN4CTPP9FnObjDumpC2Ev@Base 2.8.3
 _ZN4CTPP9FnObjDumpD0Ev@Base 2.8.3
 _ZN4CTPP9FnObjDumpD1Ev@Base 2.8.3
 _ZN4CTPP9FnObjDumpD2Ev@Base 2.8.3
 _ZN4CTPP9FnSprintf7HandlerEPNS_3CDTEjRS1_RNS_6LoggerE@Base 2.8.3
 _ZN4CTPP9FnSprintfC1Ev@Base 2.8.3
 _ZN4CTPP9FnSprintfC2Ev@Base 2.8.3
 _ZN4CTPP9FnSprintfD0Ev@Base 2.8.3
 _ZN4CTPP9FnSprintfD1Ev@Base 2.8.3
 _ZN4CTPP9FnSprintfD2Ev@Base 2.8.3
 _ZN4CTPP9FnVersion7HandlerEPNS_3CDTEjRS1_RNS_6LoggerE@Base 2.8.3
 _ZN4CTPP9FnVersionC1Ev@Base 2.8.3
 _ZN4CTPP9FnVersionC2Ev@Base 2.8.3
 _ZN4CTPP9FnVersionD0Ev@Base 2.8.3
 _ZN4CTPP9FnVersionD1Ev@Base 2.8.3
 _ZN4CTPP9FnVersionD2Ev@Base 2.8.3
 (subst)_ZN4CTPP9HashTable3PutEPKcj{uint64_t}@Base 2.8.3
 _ZN4CTPP9HashTable6ResizeEv@Base 2.8.3
 _ZN4CTPP9HashTableC1Ev@Base 2.8.3
 _ZN4CTPP9HashTableC2Ev@Base 2.8.3
 _ZN4CTPP9HashTableD1Ev@Base 2.8.3
 _ZN4CTPP9HashTableD2Ev@Base 2.8.3
 _ZN4CTPP9URIEscapeERKNSt7__cxx1112basic_stringIcSt11char_traitsIcESaIcEEE@Base 2.8.3
 _ZN4CTPP9URLEscapeERKNSt7__cxx1112basic_stringIcSt11char_traitsIcESaIcEEE@Base 2.8.3
 _ZN4CTPP9WMLEscapeERKNSt7__cxx1112basic_stringIcSt11char_traitsIcESaIcEEE@Base 2.8.3
 _ZN4CTPP9XMLEscapeERKNSt7__cxx1112basic_stringIcSt11char_traitsIcESaIcEEE@Base 2.8.3
 _ZN4CTPPdvERKdRKNS_3CDTE@Base 2.8.3
 _ZN4CTPPdvERKiRKNS_3CDTE@Base 2.8.3
 _ZN4CTPPdvERKjRKNS_3CDTE@Base 2.8.3
 (subst)_ZN4CTPPdvERK{int64_t}RKNS_3CDTE@Base 2.8.3
 (subst)_ZN4CTPPdvERK{uint64_t}RKNS_3CDTE@Base 2.8.3
 _ZN4CTPPmiERKdRKNS_3CDTE@Base 2.8.3
 _ZN4CTPPmiERKiRKNS_3CDTE@Base 2.8.3
 _ZN4CTPPmiERKjRKNS_3CDTE@Base 2.8.3
 (arch=alpha amd64 arm64 ia64 kfreebsd-amd64 mips64 mips64el ppc64 ppc64el riscv64 s390x sparc64)_ZN4CTPPmiERKlRKNS_3CDTE@Base 2.8.3
 (arch=alpha amd64 arm64 ia64 kfreebsd-amd64 mips64 mips64el ppc64 ppc64el riscv64 s390x sparc64)_ZN4CTPPmiERKmRKNS_3CDTE@Base 2.8.3
 (arch=!alpha !amd64 !arm64 !ia64 !kfreebsd-amd64 !mips64 !mips64el !ppc64 !ppc64el !riscv64 !s390x !sparc64)_ZN4CTPPmiERKxRKNS_3CDTE@Base 2.8.3
 (arch=!alpha !amd64 !arm64 !ia64 !kfreebsd-amd64 !mips64 !mips64el !ppc64 !ppc64el !riscv64 !s390x !sparc64)_ZN4CTPPmiERKyRKNS_3CDTE@Base 2.8.3
 _ZN4CTPPmlERKdRKNS_3CDTE@Base 2.8.3
 _ZN4CTPPmlERKiRKNS_3CDTE@Base 2.8.3
 _ZN4CTPPmlERKjRKNS_3CDTE@Base 2.8.3
 (arch=alpha amd64 arm64 ia64 kfreebsd-amd64 mips64 mips64el ppc64 ppc64el riscv64 s390x sparc64)_ZN4CTPPmlERKlRKNS_3CDTE@Base 2.8.3
 (arch=alpha amd64 arm64 ia64 kfreebsd-amd64 mips64 mips64el ppc64 ppc64el riscv64 s390x sparc64)_ZN4CTPPmlERKmRKNS_3CDTE@Base 2.8.3
 (arch=!alpha !amd64 !arm64 !ia64 !kfreebsd-amd64 !mips64 !mips64el !ppc64 !ppc64el !riscv64 !s390x !sparc64)_ZN4CTPPmlERKxRKNS_3CDTE@Base 2.8.3
 (arch=!alpha !amd64 !arm64 !ia64 !kfreebsd-amd64 !mips64 !mips64el !ppc64 !ppc64el !riscv64 !s390x !sparc64)_ZN4CTPPmlERKyRKNS_3CDTE@Base 2.8.3
 _ZN4CTPPplERKdRKNS_3CDTE@Base 2.8.3
 _ZN4CTPPplERKiRKNS_3CDTE@Base 2.8.3
 _ZN4CTPPplERKjRKNS_3CDTE@Base 2.8.3
 (subst)_ZN4CTPPplERK{int64_t}RKNS_3CDTE@Base 2.8.3
 (subst)_ZN4CTPPplERK{uint64_t}RKNS_3CDTE@Base 2.8.3
 _ZNK4CTPP10DumpBuffer4DataEv@Base 2.8.3
 _ZNK4CTPP10DumpBuffer4SizeEv@Base 2.8.3
 _ZNK4CTPP10FnHashKeys7GetNameEv@Base 2.8.3
 _ZNK4CTPP10FnHostname7GetNameEv@Base 2.8.3
 _ZNK4CTPP10FnTruncate7GetNameEv@Base 2.8.3
 _ZNK4CTPP10SortHelperclERKNS_3CDTES3_@Base 2.8.3
 _ZNK4CTPP10StaticData11GetBitIndexEv@Base 2.8.3
 _ZNK4CTPP10StaticData6GetIntEj@Base 2.8.3
 _ZNK4CTPP10StaticData8GetFloatEj@Base 2.8.3
 _ZNK4CTPP10StaticText13GetRecordsNumEv@Base 2.8.3
 _ZNK4CTPP10StaticText7GetDataEjRj@Base 2.8.3
 _ZNK4CTPP10VMArgStack7GetSizeEv@Base 2.8.3
 _ZNK4CTPP11CTPP2Parser18GetBlockArgSizeMapB5cxx11Ev@Base 2.8.3
 _ZNK4CTPP11FnFormParam7GetNameEv@Base 2.8.3
 _ZNK4CTPP11FnHrefParam7GetNameEv@Base 2.8.3
 _ZNK4CTPP11FnNumFormat7GetNameEv@Base 2.8.3
 _ZNK4CTPP11FnSubstring7GetNameEv@Base 2.8.3
 _ZNK4CTPP11FnURIEscape7GetNameEv@Base 2.8.3
 _ZNK4CTPP11FnURLEscape7GetNameEv@Base 2.8.3
 _ZNK4CTPP11FnWMLEscape7GetNameEv@Base 2.8.3
 _ZNK4CTPP11FnXMLEscape7GetNameEv@Base 2.8.3
 _ZNK4CTPP11InvalidCall12GetDebugInfoEv@Base 2.8.3
 _ZNK4CTPP11InvalidCall13GetSourceNameEv@Base 2.8.3
 _ZNK4CTPP11InvalidCall4whatEv@Base 2.8.3
 _ZNK4CTPP11InvalidCall5GetIPEv@Base 2.8.3
 _ZNK4CTPP11VMDebugInfo10GetDescrIdEv@Base 2.8.3
 _ZNK4CTPP11VMDebugInfo10GetLinePosEv@Base 2.8.3
 _ZNK4CTPP11VMDebugInfo7GetInfoEv@Base 2.8.3
 _ZNK4CTPP11VMDebugInfo7GetLineEv@Base 2.8.3
 _ZNK4CTPP12FnDateFormat7GetNameEv@Base 2.8.3
 _ZNK4CTPP12FnHTMLEscape7GetNameEv@Base 2.8.3
 _ZNK4CTPP12FnJSONEscape7GetNameEv@Base 2.8.3
 _ZNK4CTPP12FnMBTruncate7GetNameEv@Base 2.8.3
 _ZNK4CTPP12VMFileLoader7GetCoreEv@Base 2.8.3
 _ZNK4CTPP12ZeroDivision12GetDebugInfoEv@Base 2.8.3
 _ZNK4CTPP12ZeroDivision13GetSourceNameEv@Base 2.8.3
 _ZNK4CTPP12ZeroDivision4whatEv@Base 2.8.3
 _ZNK4CTPP12ZeroDivision5GetIPEv@Base 2.8.3
 _ZNK4CTPP13CTPP2Compiler11GetCodeSizeEv@Base 2.8.3
 _ZNK4CTPP13CTPPException4whatEv@Base 2.8.3
 _ZNK4CTPP13FnListElement7GetNameEv@Base 2.8.3
 _ZNK4CTPP13FnMBSubstring7GetNameEv@Base 2.8.3
 _ZNK4CTPP13IllegalOpcode12GetDebugInfoEv@Base 2.8.3
 _ZNK4CTPP13IllegalOpcode13GetSourceNameEv@Base 2.8.3
 _ZNK4CTPP13IllegalOpcode4whatEv@Base 2.8.3
 _ZNK4CTPP13IllegalOpcode5GetIPEv@Base 2.8.3
 _ZNK4CTPP13IllegalOpcode9GetOpcodeEv@Base 2.8.3
 _ZNK4CTPP13StackOverflow12GetDebugInfoEv@Base 2.8.3
 _ZNK4CTPP13StackOverflow13GetSourceNameEv@Base 2.8.3
 _ZNK4CTPP13StackOverflow4whatEv@Base 2.8.3
 _ZNK4CTPP13StackOverflow5GetIPEv@Base 2.8.3
 _ZNK4CTPP14CTPPLogicError4whatEv@Base 2.8.3
 _ZNK4CTPP14FnBase64Decode7GetNameEv@Base 2.8.3
 _ZNK4CTPP14FnBase64Encode7GetNameEv@Base 2.8.3
 _ZNK4CTPP14InvalidSyscall12GetDebugInfoEv@Base 2.8.3
 _ZNK4CTPP14InvalidSyscall13GetSourceNameEv@Base 2.8.3
 _ZNK4CTPP14InvalidSyscall4whatEv@Base 2.8.3
 _ZNK4CTPP14InvalidSyscall5GetIPEv@Base 2.8.3
 _ZNK4CTPP14SimpleCompiler4SaveERKNSt7__cxx1112basic_stringIcSt11char_traitsIcESaIcEEE@Base 2.8.3
 _ZNK4CTPP14SimpleCompiler7GetCoreEv@Base 2.8.3
 _ZNK4CTPP14SortCompareNumclERKNS_3CDTES3_@Base 2.8.3
 _ZNK4CTPP14SortCompareStrclERKNS_3CDTES3_@Base 2.8.3
 _ZNK4CTPP14StackUnderflow12GetDebugInfoEv@Base 2.8.3
 _ZNK4CTPP14StackUnderflow13GetSourceNameEv@Base 2.8.3
 _ZNK4CTPP14StackUnderflow4whatEv@Base 2.8.3
 _ZNK4CTPP14StackUnderflow5GetIPEv@Base 2.8.3
 _ZNK4CTPP14SyscallFactory14GetHandlerByIdEj@Base 2.8.3
 _ZNK4CTPP14SyscallFactory16GetHandlerByNameEPKc@Base 2.8.3
 _ZNK4CTPP14SyscallHandler10GetVersionEv@Base 2.8.3
 _ZNK4CTPP15ReducedBitIndex11GetUsedSizeEv@Base 2.8.3
 _ZNK4CTPP15ReducedBitIndex12GetIndexDataEv@Base 2.8.3
 _ZNK4CTPP15ReducedBitIndex6GetBitEj@Base 2.8.3
 _ZNK4CTPP16CTPPGetTextError4whatEv@Base 2.8.3
 _ZNK4CTPP16ReducedHashTable3GetEPKcj@Base 2.8.3
 _ZNK4CTPP16ReducedHashTable4SizeEv@Base 2.8.3
 _ZNK4CTPP17CDTRangeException4whatEv@Base 2.8.3
 _ZNK4CTPP17CTPPNoMemoryError4whatEv@Base 2.8.3
 _ZNK4CTPP17CTPPUnixException4whatEv@Base 2.8.3
 _ZNK4CTPP17CTPPUnixException5ErrNoEv@Base 2.8.3
 _ZNK4CTPP17ReducedStaticData6GetIntEj@Base 2.8.3
 _ZNK4CTPP17ReducedStaticData8GetFloatEj@Base 2.8.3
 _ZNK4CTPP17ReducedStaticText13GetRecordsNumEv@Base 2.8.3
 _ZNK4CTPP17ReducedStaticText7GetDataEjRj@Base 2.8.3
 _ZNK4CTPP17VMOpcodeCollector11GetCodeSizeEv@Base 2.8.3
 _ZNK4CTPP18CDTAccessException4whatEv@Base 2.8.3
 _ZNK4CTPP18CodeSegmentOverrun12GetDebugInfoEv@Base 2.8.3
 _ZNK4CTPP18CodeSegmentOverrun13GetSourceNameEv@Base 2.8.3
 _ZNK4CTPP18CodeSegmentOverrun4whatEv@Base 2.8.3
 _ZNK4CTPP18CodeSegmentOverrun5GetIPEv@Base 2.8.3
 _ZNK4CTPP19CTPPParserException4whatEv@Base 2.8.3
 _ZNK4CTPP19FileOutputCollector9GetFileNoEv@Base 2.8.3
 _ZNK4CTPP20CDTTypeCastException4whatEv@Base 2.8.3
 _ZNK4CTPP21CTPP2FileSourceLoader15GetTemplateNameEv@Base 2.8.3
 _ZNK4CTPP21CTPPParserSyntaxError10GetLinePosEv@Base 2.8.3
 _ZNK4CTPP21CTPPParserSyntaxError4whatEv@Base 2.8.3
 _ZNK4CTPP21CTPPParserSyntaxError7GetLineEv@Base 2.8.3
 _ZNK4CTPP21ExecutionLimitReached12GetDebugInfoEv@Base 2.8.3
 _ZNK4CTPP21ExecutionLimitReached13GetSourceNameEv@Base 2.8.3
 _ZNK4CTPP21ExecutionLimitReached4whatEv@Base 2.8.3
 _ZNK4CTPP21ExecutionLimitReached5GetIPEv@Base 2.8.3
 _ZNK4CTPP24CTPPNullPointerException4whatEv@Base 2.8.3
 _ZNK4CTPP25SortCompareNumHashElementclERKNS_3CDTES3_@Base 2.8.3
 _ZNK4CTPP25SortCompareStrHashElementclERKNS_3CDTES3_@Base 2.8.3
 _ZNK4CTPP26CTPPCharsetRecodeException14GetDestinationEv@Base 2.8.3
 _ZNK4CTPP26CTPPCharsetRecodeException4whatEv@Base 2.8.3
 _ZNK4CTPP26CTPPCharsetRecodeException9GetSourceEv@Base 2.8.3
 _ZNK4CTPP26SortCompareNumArrayElementclERKNS_3CDTES3_@Base 2.8.3
 _ZNK4CTPP26SortCompareStrArrayElementclERKNS_3CDTES3_@Base 2.8.3
 _ZNK4CTPP27CTPPParserOperatorsMismatch10GetLinePosEv@Base 2.8.3
 _ZNK4CTPP27CTPPParserOperatorsMismatch4whatEv@Base 2.8.3
 _ZNK4CTPP27CTPPParserOperatorsMismatch5FoundEv@Base 2.8.3
 _ZNK4CTPP27CTPPParserOperatorsMismatch7GetLineEv@Base 2.8.3
 _ZNK4CTPP27CTPPParserOperatorsMismatch8ExpectedEv@Base 2.8.3
 _ZNK4CTPP3CDT10GetPointerEv@Base 2.8.3
 _ZNK4CTPP3CDT11GetHashKeysEv@Base 2.8.3
 _ZNK4CTPP3CDT11LessOrEqualEPKc@Base 2.8.3
 _ZNK4CTPP3CDT11LessOrEqualERKNSt7__cxx1112basic_stringIcSt11char_traitsIcESaIcEEE@Base 2.8.3
 _ZNK4CTPP3CDT11LessOrEqualERKS0_@Base 2.8.3
 _ZNK4CTPP3CDT11LessOrEqualEd@Base 2.8.3
 _ZNK4CTPP3CDT11LessOrEqualEi@Base 2.8.3
 _ZNK4CTPP3CDT11LessOrEqualEj@Base 2.8.3
 (subst)_ZNK4CTPP3CDT11LessOrEqualE{int64_t}@Base 2.8.3
 (subst)_ZNK4CTPP3CDT11LessOrEqualE{uint64_t}@Base 2.8.3
 (subst)_ZNK4CTPP3CDT12CastToNumberER{int64_t}Rd@Base 2.8.3
 _ZNK4CTPP3CDT12JoinHashKeysERKNSt7__cxx1112basic_stringIcSt11char_traitsIcESaIcEEE@Base 2.8.3
 _ZNK4CTPP3CDT13ConstIteratoreqERKS1_@Base 2.8.3
 _ZNK4CTPP3CDT13ConstIteratorneERKS1_@Base 2.8.3
 _ZNK4CTPP3CDT13ConstIteratorptB5cxx11Ev@Base 2.8.3
 _ZNK4CTPP3CDT13GetExistedCDTERKNSt7__cxx1112basic_stringIcSt11char_traitsIcESaIcEEERb@Base 2.8.3
 _ZNK4CTPP3CDT13GetHashValuesEv@Base 2.8.3
 _ZNK4CTPP3CDT13PrintableTypeEv@Base 2.8.3
 _ZNK4CTPP3CDT13RecursiveDumpB5cxx11Ej@Base 2.8.3
 _ZNK4CTPP3CDT14GreaterOrEqualEPKc@Base 2.8.3
 _ZNK4CTPP3CDT14GreaterOrEqualERKNSt7__cxx1112basic_stringIcSt11char_traitsIcESaIcEEE@Base 2.8.3
 _ZNK4CTPP3CDT14GreaterOrEqualERKS0_@Base 2.8.3
 _ZNK4CTPP3CDT14GreaterOrEqualEd@Base 2.8.3
 _ZNK4CTPP3CDT14GreaterOrEqualEi@Base 2.8.3
 _ZNK4CTPP3CDT14GreaterOrEqualEj@Base 2.8.3
 (subst)_ZNK4CTPP3CDT14GreaterOrEqualE{int64_t}@Base 2.8.3
 (subst)_ZNK4CTPP3CDT14GreaterOrEqualE{uint64_t}@Base 2.8.3
 _ZNK4CTPP3CDT14JoinHashValuesERKNSt7__cxx1112basic_stringIcSt11char_traitsIcESaIcEEE@Base 2.8.3
 _ZNK4CTPP3CDT17JoinArrayElementsERKNSt7__cxx1112basic_stringIcSt11char_traitsIcESaIcEEE@Base 2.8.3
 _ZNK4CTPP3CDT20CheckComplexDataTypeEv@Base 2.8.3
 _ZNK4CTPP3CDT3EndEv@Base 2.8.3
 _ZNK4CTPP3CDT4DumpB5cxx11Ejb@Base 2.8.3
 _ZNK4CTPP3CDT4FindERKNSt7__cxx1112basic_stringIcSt11char_traitsIcESaIcEEE@Base 2.8.3
 _ZNK4CTPP3CDT4LessEPKc@Base 2.8.3
 _ZNK4CTPP3CDT4LessERKNSt7__cxx1112basic_stringIcSt11char_traitsIcESaIcEEE@Base 2.8.3
 _ZNK4CTPP3CDT4LessERKS0_@Base 2.8.3
 _ZNK4CTPP3CDT4LessEd@Base 2.8.3
 _ZNK4CTPP3CDT4LessEi@Base 2.8.3
 _ZNK4CTPP3CDT4LessEj@Base 2.8.3
 (subst)_ZNK4CTPP3CDT4LessE{int64_t}@Base 2.8.3
 (subst)_ZNK4CTPP3CDT4LessE{uint64_t}@Base 2.8.3
 _ZNK4CTPP3CDT4SizeEv@Base 2.8.3
 _ZNK4CTPP3CDT5BeginEv@Base 2.8.3
 _ZNK4CTPP3CDT5EqualEPKc@Base 2.8.3
 _ZNK4CTPP3CDT5EqualERKNSt7__cxx1112basic_stringIcSt11char_traitsIcESaIcEEE@Base 2.8.3
 _ZNK4CTPP3CDT5EqualERKS0_@Base 2.8.3
 _ZNK4CTPP3CDT5EqualEd@Base 2.8.3
 _ZNK4CTPP3CDT5EqualEi@Base 2.8.3
 _ZNK4CTPP3CDT5EqualEj@Base 2.8.3
 (subst)_ZNK4CTPP3CDT5EqualE{int64_t}@Base 2.8.3
 (subst)_ZNK4CTPP3CDT5EqualE{uint64_t}@Base 2.8.3
 _ZNK4CTPP3CDT6ExistsERKNSt7__cxx1112basic_stringIcSt11char_traitsIcESaIcEEE@Base 2.8.3
 _ZNK4CTPP3CDT6ExistsEj@Base 2.8.3
 _ZNK4CTPP3CDT6GetCDTERKNSt7__cxx1112basic_stringIcSt11char_traitsIcESaIcEEE@Base 2.8.3
 _ZNK4CTPP3CDT6GetCDTEj@Base 2.8.3
 _ZNK4CTPP3CDT6GetIntEv@Base 2.8.3
 _ZNK4CTPP3CDT7GetTypeEv@Base 2.8.3
 _ZNK4CTPP3CDT7GetUIntEv@Base 2.8.3
 _ZNK4CTPP3CDT7GreaterEPKc@Base 2.8.3
 _ZNK4CTPP3CDT7GreaterERKNSt7__cxx1112basic_stringIcSt11char_traitsIcESaIcEEE@Base 2.8.3
 _ZNK4CTPP3CDT7GreaterERKS0_@Base 2.8.3
 _ZNK4CTPP3CDT7GreaterEd@Base 2.8.3
 _ZNK4CTPP3CDT7GreaterEi@Base 2.8.3
 _ZNK4CTPP3CDT7GreaterEj@Base 2.8.3
 (subst)_ZNK4CTPP3CDT7GreaterE{int64_t}@Base 2.8.3
 (subst)_ZNK4CTPP3CDT7GreaterE{uint64_t}@Base 2.8.3
 _ZNK4CTPP3CDT7NonzeroEv@Base 2.8.3
 _ZNK4CTPP3CDT8GetFloatEv@Base 2.8.3
 _ZNK4CTPP3CDT8NotEqualEPKc@Base 2.8.3
 _ZNK4CTPP3CDT8NotEqualERKNSt7__cxx1112basic_stringIcSt11char_traitsIcESaIcEEE@Base 2.8.3
 _ZNK4CTPP3CDT8NotEqualERKS0_@Base 2.8.3
 _ZNK4CTPP3CDT8NotEqualEd@Base 2.8.3
 _ZNK4CTPP3CDT8NotEqualEi@Base 2.8.3
 _ZNK4CTPP3CDT8NotEqualEj@Base 2.8.3
 (subst)_ZNK4CTPP3CDT8NotEqualE{int64_t}@Base 2.8.3
 (subst)_ZNK4CTPP3CDT8NotEqualE{uint64_t}@Base 2.8.3
 _ZNK4CTPP3CDT9GetStringB5cxx11EPKc@Base 2.8.3
 _ZNK4CTPP3CDTdvERKS0_@Base 2.8.3
 _ZNK4CTPP3CDTdvEd@Base 2.8.3
 _ZNK4CTPP3CDTdvEi@Base 2.8.3
 _ZNK4CTPP3CDTdvEj@Base 2.8.3
 (subst)_ZNK4CTPP3CDTdvE{int64_t}@Base 2.8.3
 (subst)_ZNK4CTPP3CDTdvE{uint64_t}@Base 2.8.3
 _ZNK4CTPP3CDTeqEPKc@Base 2.8.3
 _ZNK4CTPP3CDTeqERKNSt7__cxx1112basic_stringIcSt11char_traitsIcESaIcEEE@Base 2.8.3
 _ZNK4CTPP3CDTeqERKS0_@Base 2.8.3
 _ZNK4CTPP3CDTeqEd@Base 2.8.3
 _ZNK4CTPP3CDTeqEi@Base 2.8.3
 _ZNK4CTPP3CDTeqEj@Base 2.8.3
 (subst)_ZNK4CTPP3CDTeqE{int64_t}@Base 2.8.3
 (subst)_ZNK4CTPP3CDTeqE{uint64_t}@Base 2.8.3
 _ZNK4CTPP3CDTgeEPKc@Base 2.8.3
 _ZNK4CTPP3CDTgeERKNSt7__cxx1112basic_stringIcSt11char_traitsIcESaIcEEE@Base 2.8.3
 _ZNK4CTPP3CDTgeERKS0_@Base 2.8.3
 _ZNK4CTPP3CDTgeEd@Base 2.8.3
 _ZNK4CTPP3CDTgeEi@Base 2.8.3
 _ZNK4CTPP3CDTgeEj@Base 2.8.3
 (subst)_ZNK4CTPP3CDTgeE{int64_t}@Base 2.8.3
 (subst)_ZNK4CTPP3CDTgeE{uint64_t}@Base 2.8.3
 _ZNK4CTPP3CDTgtEPKc@Base 2.8.3
 _ZNK4CTPP3CDTgtERKNSt7__cxx1112basic_stringIcSt11char_traitsIcESaIcEEE@Base 2.8.3
 _ZNK4CTPP3CDTgtERKS0_@Base 2.8.3
 _ZNK4CTPP3CDTgtEd@Base 2.8.3
 _ZNK4CTPP3CDTgtEi@Base 2.8.3
 _ZNK4CTPP3CDTgtEj@Base 2.8.3
 (subst)_ZNK4CTPP3CDTgtE{int64_t}@Base 2.8.3
 (subst)_ZNK4CTPP3CDTgtE{uint64_t}@Base 2.8.3
 _ZNK4CTPP3CDTixERKNSt7__cxx1112basic_stringIcSt11char_traitsIcESaIcEEE@Base 2.8.3
 _ZNK4CTPP3CDTixEj@Base 2.8.3
 _ZNK4CTPP3CDTleEPKc@Base 2.8.3
 _ZNK4CTPP3CDTleERKNSt7__cxx1112basic_stringIcSt11char_traitsIcESaIcEEE@Base 2.8.3
 _ZNK4CTPP3CDTleERKS0_@Base 2.8.3
 _ZNK4CTPP3CDTleEd@Base 2.8.3
 _ZNK4CTPP3CDTleEi@Base 2.8.3
 _ZNK4CTPP3CDTleEj@Base 2.8.3
 (subst)_ZNK4CTPP3CDTleE{int64_t}@Base 2.8.3
 (subst)_ZNK4CTPP3CDTleE{uint64_t}@Base 2.8.3
 _ZNK4CTPP3CDTltEPKc@Base 2.8.3
 _ZNK4CTPP3CDTltERKNSt7__cxx1112basic_stringIcSt11char_traitsIcESaIcEEE@Base 2.8.3
 _ZNK4CTPP3CDTltERKS0_@Base 2.8.3
 _ZNK4CTPP3CDTltEd@Base 2.8.3
 _ZNK4CTPP3CDTltEi@Base 2.8.3
 _ZNK4CTPP3CDTltEj@Base 2.8.3
 (subst)_ZNK4CTPP3CDTltE{int64_t}@Base 2.8.3
 (subst)_ZNK4CTPP3CDTltE{uint64_t}@Base 2.8.3
 _ZNK4CTPP3CDTmiERKS0_@Base 2.8.3
 _ZNK4CTPP3CDTmiEd@Base 2.8.3
 _ZNK4CTPP3CDTmiEi@Base 2.8.3
 _ZNK4CTPP3CDTmiEj@Base 2.8.3
 (arch=alpha amd64 arm64 ia64 kfreebsd-amd64 mips64 mips64el ppc64 ppc64el riscv64 s390x sparc64)_ZNK4CTPP3CDTmiEl@Base 2.8.3
 (arch=alpha amd64 arm64 ia64 kfreebsd-amd64 mips64 mips64el ppc64 ppc64el riscv64 s390x sparc64)_ZNK4CTPP3CDTmiEm@Base 2.8.3
 (arch=!alpha !amd64 !arm64 !ia64 !kfreebsd-amd64 !mips64 !mips64el !ppc64 !ppc64el !riscv64 !s390x !sparc64)_ZNK4CTPP3CDTmiEx@Base 2.8.3
 (arch=!alpha !amd64 !arm64 !ia64 !kfreebsd-amd64 !mips64 !mips64el !ppc64 !ppc64el !riscv64 !s390x !sparc64)_ZNK4CTPP3CDTmiEy@Base 2.8.3
 _ZNK4CTPP3CDTmlERKS0_@Base 2.8.3
 _ZNK4CTPP3CDTmlEd@Base 2.8.3
 _ZNK4CTPP3CDTmlEi@Base 2.8.3
 _ZNK4CTPP3CDTmlEj@Base 2.8.3
 (arch=alpha amd64 arm64 ia64 kfreebsd-amd64 mips64 mips64el ppc64 ppc64el riscv64 s390x sparc64)_ZNK4CTPP3CDTmlEl@Base 2.8.3
 (arch=alpha amd64 arm64 ia64 kfreebsd-amd64 mips64 mips64el ppc64 ppc64el riscv64 s390x sparc64)_ZNK4CTPP3CDTmlEm@Base 2.8.3
 (arch=!alpha !amd64 !arm64 !ia64 !kfreebsd-amd64 !mips64 !mips64el !ppc64 !ppc64el !riscv64 !s390x !sparc64)_ZNK4CTPP3CDTmlEx@Base 2.8.3
 (arch=!alpha !amd64 !arm64 !ia64 !kfreebsd-amd64 !mips64 !mips64el !ppc64 !ppc64el !riscv64 !s390x !sparc64)_ZNK4CTPP3CDTmlEy@Base 2.8.3
 _ZNK4CTPP3CDTneEPKc@Base 2.8.3
 _ZNK4CTPP3CDTneERKNSt7__cxx1112basic_stringIcSt11char_traitsIcESaIcEEE@Base 2.8.3
 _ZNK4CTPP3CDTneERKS0_@Base 2.8.3
 _ZNK4CTPP3CDTneEd@Base 2.8.3
 _ZNK4CTPP3CDTneEi@Base 2.8.3
 _ZNK4CTPP3CDTneEj@Base 2.8.3
 (subst)_ZNK4CTPP3CDTneE{int64_t}@Base 2.8.3
 (subst)_ZNK4CTPP3CDTneE{uint64_t}@Base 2.8.3
 _ZNK4CTPP3CDTplERKS0_@Base 2.8.3
 _ZNK4CTPP3CDTplEd@Base 2.8.3
 _ZNK4CTPP3CDTplEi@Base 2.8.3
 _ZNK4CTPP3CDTplEj@Base 2.8.3
 (subst)_ZNK4CTPP3CDTplE{int64_t}@Base 2.8.3
 (subst)_ZNK4CTPP3CDTplE{uint64_t}@Base 2.8.3
 _ZNK4CTPP5FnAvg7GetNameEv@Base 2.8.3
 _ZNK4CTPP5FnLog7GetNameEv@Base 2.8.3
 _ZNK4CTPP5FnMax7GetNameEv@Base 2.8.3
 _ZNK4CTPP5FnMin7GetNameEv@Base 2.8.3
 _ZNK4CTPP6FnCast7GetNameEv@Base 2.8.3
 _ZNK4CTPP6FnJSON7GetNameEv@Base 2.8.3
 _ZNK4CTPP6FnList7GetNameEv@Base 2.8.3
 _ZNK4CTPP6FnSize7GetNameEv@Base 2.8.3
 _ZNK4CTPP7FnError7GetNameEv@Base 2.8.3
 _ZNK4CTPP7FnIconv7GetNameEv@Base 2.8.3
 _ZNK4CTPP7FnInSet7GetNameEv@Base 2.8.3
 _ZNK4CTPP8BitIndex11GetUsedSizeEv@Base 2.8.3
 _ZNK4CTPP8BitIndex12GetIndexDataEv@Base 2.8.3
 _ZNK4CTPP8BitIndex6GetBitEj@Base 2.8.3
 _ZNK4CTPP8FnConcat7GetNameEv@Base 2.8.3
 _ZNK4CTPP8FnMBSize7GetNameEv@Base 2.8.3
 _ZNK4CTPP8FnRandom7GetNameEv@Base 2.8.3
 _ZNK4CTPP9FnContext7GetNameEv@Base 2.8.3
 _ZNK4CTPP9FnDefault7GetNameEv@Base 2.8.3
 _ZNK4CTPP9FnDefined7GetNameEv@Base 2.8.3
 _ZNK4CTPP9FnEmitter7GetNameEv@Base 2.8.3
 _ZNK4CTPP9FnGetText7GetNameEv@Base 2.8.3
 _ZNK4CTPP9FnGetType7GetNameEv@Base 2.8.3
 _ZNK4CTPP9FnInArray7GetNameEv@Base 2.8.3
 _ZNK4CTPP9FnObjDump7GetNameEv@Base 2.8.3
 _ZNK4CTPP9FnSprintf7GetNameEv@Base 2.8.3
 _ZNK4CTPP9FnVersion7GetNameEv@Base 2.8.3
 _ZNK4CTPP9HashTable3GetEPKcj@Base 2.8.3
 _ZNK4CTPP9HashTable4SizeEv@Base 2.8.3
 (arch=!alpha !amd64 !arm64 !armel !armhf !hppa !hurd-i386 !i386 !kfreebsd-amd64 !kfreebsd-i386 !m68k !mips !mips64el !mipsel !powerpc !powerpcspe !ppc64 !ppc64el !riscv64 !s390x !sh4 !sparc64 !x32)_ZNSt3mapINSt7__cxx1112basic_stringIcSt11char_traitsIcESaIcEEEN4CTPP12CTPP2GetText12CTPP2CatalogESt4lessIS5_ESaISt4pairIKS5_S8_EEEixERSC_@Base 2.8.3
 (arch=!alpha !amd64 !arm64 !armel !armhf !hppa !hurd-i386 !i386 !kfreebsd-amd64 !kfreebsd-i386 !m68k !mips !mips64el !mipsel !powerpc !powerpcspe !ppc64 !ppc64el !riscv64 !s390x !sh4 !sparc64 !x32)_ZNSt3mapINSt7__cxx1112basic_stringIcSt11char_traitsIcESaIcEEES_IS5_N4CTPP12CTPP2GetText12CTPP2CatalogESt4lessIS5_ESaISt4pairIKS5_S8_EEESA_SaISB_ISC_SF_EEEixERSC_@Base 2.8.3
 (optional=templinst|arch=!alpha !amd64 !arm64 !armel !armhf !hppa !hurd-i386 !i386 !kfreebsd-amd64 !kfreebsd-i386 !m68k !mips !mips64el !mipsel !powerpc !powerpcspe !ppc64 !ppc64el !riscv64 !s390x !sh4 !sparc64 !x32)_ZNSt3mapISsS_ISsN4CTPP12CTPP2GetText12CTPP2CatalogESt4lessISsESaISt4pairIKSsS2_EEES4_SaIS5_IS6_S9_EEEixERS6_@Base 2.8.3
 (optional=templinst|arch=ia64 s390)_ZNSt3mapISsSsSt4lessISsESaISt4pairIKSsSsEEEixERS3_@Base 2.8.3
 (optional=templinst|arch=ia64 s390)_ZNSt3mapISsjSt4lessISsESaISt4pairIKSsjEEEixERS3_@Base 2.8.3
 (arch=!alpha !amd64 !arm64 !armel !armhf !hppa !hurd-i386 !i386 !kfreebsd-amd64 !kfreebsd-i386 !m68k !mips !mips64el !mipsel !powerpc !powerpcspe !ppc64 !ppc64el !riscv64 !s390x !sh4 !sparc64 !x32)_ZNSt4pairIKNSt7__cxx1112basic_stringIcSt11char_traitsIcESaIcEEEN4CTPP12CTPP2GetText12CTPP2CatalogEED1Ev@Base 2.8.3
 (arch=!alpha !amd64 !arm64 !armel !armhf !hppa !hurd-i386 !i386 !kfreebsd-amd64 !kfreebsd-i386 !m68k !mips !mips64el !mipsel !powerpc !powerpcspe !ppc64 !ppc64el !riscv64 !s390x !sh4 !sparc64 !x32)_ZNSt4pairIKNSt7__cxx1112basic_stringIcSt11char_traitsIcESaIcEEEN4CTPP12CTPP2GetText12CTPP2CatalogEED2Ev@Base 2.8.3
 (arch=!alpha !amd64 !arm64 !armel !armhf !hppa !hurd-i386 !i386 !kfreebsd-amd64 !kfreebsd-i386 !m68k !mips !mips64el !mipsel !powerpc !powerpcspe !ppc64 !ppc64el !riscv64 !s390x !sh4 !sparc64 !x32)_ZNSt4pairIKNSt7__cxx1112basic_stringIcSt11char_traitsIcESaIcEEEN4CTPP3CDTEED1Ev@Base 2.8.3
 (arch=!alpha !amd64 !arm64 !armel !armhf !hppa !hurd-i386 !i386 !kfreebsd-amd64 !kfreebsd-i386 !m68k !mips !mips64el !mipsel !powerpc !powerpcspe !ppc64 !ppc64el !riscv64 !s390x !sh4 !sparc64 !x32)_ZNSt4pairIKNSt7__cxx1112basic_stringIcSt11char_traitsIcESaIcEEEN4CTPP3CDTEED2Ev@Base 2.8.3
 (arch=!alpha !amd64 !arm64 !armel !armhf !hppa !hurd-i386 !i386 !kfreebsd-amd64 !kfreebsd-i386 !m68k !mips !mips64el !mipsel !powerpc !powerpcspe !ppc64 !ppc64el !riscv64 !s390x !sh4 !sparc64 !x32)_ZNSt4pairIKNSt7__cxx1112basic_stringIcSt11char_traitsIcESaIcEEES5_ED1Ev@Base 2.8.3
 (arch=!alpha !amd64 !arm64 !armel !armhf !hppa !hurd-i386 !i386 !kfreebsd-amd64 !kfreebsd-i386 !m68k !mips !mips64el !mipsel !powerpc !powerpcspe !ppc64 !ppc64el !riscv64 !s390x !sh4 !sparc64 !x32)_ZNSt4pairIKNSt7__cxx1112basic_stringIcSt11char_traitsIcESaIcEEES5_ED2Ev@Base 2.8.3
 (arch=!alpha !amd64 !arm64 !armel !armhf !hppa !hurd-i386 !i386 !kfreebsd-amd64 !kfreebsd-i386 !m68k !mips !mips64el !mipsel !powerpc !powerpcspe !ppc64 !ppc64el !riscv64 !s390x !sh4 !sparc64 !x32)_ZNSt4pairIKNSt7__cxx1112basic_stringIcSt11char_traitsIcESaIcEEESt3mapIS5_N4CTPP12CTPP2GetText12CTPP2CatalogESt4lessIS5_ESaIS_IS6_SA_EEEED1Ev@Base 2.8.3
 (arch=!alpha !amd64 !arm64 !armel !armhf !hppa !hurd-i386 !i386 !kfreebsd-amd64 !kfreebsd-i386 !m68k !mips !mips64el !mipsel !powerpc !powerpcspe !ppc64 !ppc64el !riscv64 !s390x !sh4 !sparc64 !x32)_ZNSt4pairIKNSt7__cxx1112basic_stringIcSt11char_traitsIcESaIcEEESt3mapIS5_N4CTPP12CTPP2GetText12CTPP2CatalogESt4lessIS5_ESaIS_IS6_SA_EEEED2Ev@Base 2.8.3
 (arch=!alpha !amd64 !arm64 !armel !armhf !hppa !hurd-i386 !i386 !kfreebsd-amd64 !kfreebsd-i386 !m68k !mips !mips64el !mipsel !powerpc !powerpcspe !ppc64 !ppc64el !riscv64 !s390x !sh4 !sparc64 !x32)_ZNSt4pairIKNSt7__cxx1112basic_stringIcSt11char_traitsIcESaIcEEESt6vectorIS5_SaIS5_EEED1Ev@Base 2.8.3
 (arch=!alpha !amd64 !arm64 !armel !armhf !hppa !hurd-i386 !i386 !kfreebsd-amd64 !kfreebsd-i386 !m68k !mips !mips64el !mipsel !powerpc !powerpcspe !ppc64 !ppc64el !riscv64 !s390x !sh4 !sparc64 !x32)_ZNSt4pairIKNSt7__cxx1112basic_stringIcSt11char_traitsIcESaIcEEESt6vectorIS5_SaIS5_EEED2Ev@Base 2.8.3
 _ZNSt4pairINSt7__cxx1112basic_stringIcSt11char_traitsIcESaIcEEEN4CTPP3CDTEED1Ev@Base 2.8.3
 _ZNSt4pairINSt7__cxx1112basic_stringIcSt11char_traitsIcESaIcEEEN4CTPP3CDTEED2Ev@Base 2.8.3
 (arch=!alpha !amd64 !arm64 !armel !armhf !hppa !hurd-i386 !i386 !kfreebsd-amd64 !kfreebsd-i386 !m68k !mips !mips64el !mipsel !powerpc !powerpcspe !ppc64 !ppc64el !riscv64 !s390x !sh4 !sparc64 !x32)_ZNSt6vectorIN4CTPP11SymbolTableINS0_13CTPP2Compiler14SymbolTableRecEE9ScopeVarsESaIS5_EE13_M_insert_auxEN9__gnu_cxx17__normal_iteratorIPS5_S7_EERKS5_@Base 2.8.3
 (optional=templinst)_ZNSt6vectorIN4CTPP11SymbolTableINS0_13CTPP2Compiler14SymbolTableRecEE9ScopeVarsESaIS5_EED1Ev@Base 2.8.3
 (optional=templinst)_ZNSt6vectorIN4CTPP11SymbolTableINS0_13CTPP2Compiler14SymbolTableRecEE9ScopeVarsESaIS5_EED2Ev@Base 2.8.3
 (optional=templinst|arch=ia64 s390)_ZNSt6vectorIN4CTPP12CTPP2GetText17eCTPP2InstructionESaIS2_EE13_M_insert_auxEN9__gnu_cxx17__normal_iteratorIPS2_S4_EERKS2_@Base 2.8.3
 (optional=templinst|arch=!alpha !amd64 !arm64 !armel !armhf !hppa !hurd-i386 !i386 !kfreebsd-amd64 !kfreebsd-i386 !m68k !mips !mips64el !mipsel !powerpc !powerpcspe !ppc64 !ppc64el !riscv64 !s390x !sh4 !sparc64 !x32)_ZNSt6vectorIN4CTPP12CTPP2GetText9CTPP2DataESaIS2_EE13_M_insert_auxEN9__gnu_cxx17__normal_iteratorIPS2_S4_EERKS2_@Base 2.8.3
 (optional=templinst|arch=ia64 s390)_ZNSt6vectorIN4CTPP3CDTESaIS1_EE13_M_insert_auxEN9__gnu_cxx17__normal_iteratorIPS1_S3_EERKS1_@Base 2.8.3
 _ZNSt6vectorINSt7__cxx1112basic_stringIcSt11char_traitsIcESaIcEEESaIS5_EED1Ev@Base 2.8.3
 _ZNSt6vectorINSt7__cxx1112basic_stringIcSt11char_traitsIcESaIcEEESaIS5_EED2Ev@Base 2.8.3
 (optional=templinst|arch=s390)_ZNSt6vectorISsSaISsEE13_M_insert_auxEN9__gnu_cxx17__normal_iteratorIPSsS1_EERKSs@Base 2.8.3
 (arch=!alpha !amd64 !arm64 !armel !armhf !hppa !hurd-i386 !i386 !kfreebsd-amd64 !kfreebsd-i386 !m68k !mips !mips64el !mipsel !powerpc !powerpcspe !ppc64 !ppc64el !riscv64 !s390x !sh4 !sparc64 !x32)_ZNSt8_Rb_treeINSt7__cxx1112basic_stringIcSt11char_traitsIcESaIcEEESt4pairIKS5_N4CTPP12CTPP2GetText12CTPP2CatalogEESt10_Select1stISB_ESt4lessIS5_ESaISB_EE7_M_copyINSH_11_Alloc_nodeEEEPSt13_Rb_tree_nodeISB_EPKSL_SM_RT_@Base 2.8.3
 _ZNSt8_Rb_treeINSt7__cxx1112basic_stringIcSt11char_traitsIcESaIcEEESt4pairIKS5_N4CTPP12CTPP2GetText12CTPP2CatalogEESt10_Select1stISB_ESt4lessIS5_ESaISB_EE8_M_eraseEPSt13_Rb_tree_nodeISB_E@Base 2.8.3
 (optional=templinst|arch=alpha amd64 arm64 armel armhf hppa hurd-i386 i386 kfreebsd-amd64 kfreebsd-i386 m68k mips mips64el mipsel powerpc powerpcspe ppc64 ppc64el riscv64 s390x sh4 sparc64 x32)_ZNSt8_Rb_treeINSt7__cxx1112basic_stringIcSt11char_traitsIcESaIcEEESt4pairIKS5_N4CTPP3CDTEESt10_Select1stISA_ESt4lessIS5_ESaISA_EE7_M_copyINSG_11_Alloc_nodeEEEPSt13_Rb_tree_nodeISA_EPKSK_PSt18_Rb_tree_node_baseRT_@Base 2.8.3
 (arch=!alpha !amd64 !arm64 !armel !armhf !hppa !hurd-i386 !i386 !kfreebsd-amd64 !kfreebsd-i386 !m68k !mips !mips64el !mipsel !powerpc !powerpcspe !ppc64 !ppc64el !riscv64 !s390x !sh4 !sparc64 !x32)_ZNSt8_Rb_treeINSt7__cxx1112basic_stringIcSt11char_traitsIcESaIcEEESt4pairIKS5_N4CTPP3CDTEESt10_Select1stISA_ESt4lessIS5_ESaISA_EE7_M_copyINSG_11_Alloc_nodeEEEPSt13_Rb_tree_nodeISA_EPKSK_SL_RT_@Base 2.8.3
 _ZNSt8_Rb_treeINSt7__cxx1112basic_stringIcSt11char_traitsIcESaIcEEESt4pairIKS5_N4CTPP3CDTEESt10_Select1stISA_ESt4lessIS5_ESaISA_EE8_M_eraseEPSt13_Rb_tree_nodeISA_E@Base 2.8.3
 (arch=!alpha !amd64 !arm64 !armel !armhf !hurd-i386 !i386 !kfreebsd-i386 !m68k !mips !mips64el !mipsel !powerpc !powerpcspe !ppc64 !ppc64el !riscv64 !s390x !sparc64 !x32)_ZNSt8_Rb_treeINSt7__cxx1112basic_stringIcSt11char_traitsIcESaIcEEESt4pairIKS5_PvESt10_Select1stIS9_ESt4lessIS5_ESaIS9_EE24_M_get_insert_unique_posERS7_@Base 2.8.3
 _ZNSt8_Rb_treeINSt7__cxx1112basic_stringIcSt11char_traitsIcESaIcEEESt4pairIKS5_PvESt10_Select1stIS9_ESt4lessIS5_ESaIS9_EE8_M_eraseEPSt13_Rb_tree_nodeIS9_E@Base 2.8.3
 (arch=!alpha !amd64 !arm64 !armel !armhf !hppa !hurd-i386 !i386 !kfreebsd-amd64 !kfreebsd-i386 !m68k !mips !mips64el !mipsel !powerpc !powerpcspe !ppc64 !ppc64el !riscv64 !s390x !sh4 !sparc64 !x32)_ZNSt8_Rb_treeINSt7__cxx1112basic_stringIcSt11char_traitsIcESaIcEEESt4pairIKS5_S5_ESt10_Select1stIS8_ESt4lessIS5_ESaIS8_EE7_M_copyINSE_11_Alloc_nodeEEEPSt13_Rb_tree_nodeIS8_EPKSI_SJ_RT_@Base 2.8.3
 _ZNSt8_Rb_treeINSt7__cxx1112basic_stringIcSt11char_traitsIcESaIcEEESt4pairIKS5_S5_ESt10_Select1stIS8_ESt4lessIS5_ESaIS8_EE8_M_eraseEPSt13_Rb_tree_nodeIS8_E@Base 2.8.3
 _ZNSt8_Rb_treeINSt7__cxx1112basic_stringIcSt11char_traitsIcESaIcEEESt4pairIKS5_St3mapIS5_N4CTPP12CTPP2GetText12CTPP2CatalogESt4lessIS5_ESaIS6_IS7_SB_EEEESt10_Select1stISH_ESD_SaISH_EE8_M_eraseEPSt13_Rb_tree_nodeISH_E@Base 2.8.3
 _ZNSt8_Rb_treeINSt7__cxx1112basic_stringIcSt11char_traitsIcESaIcEEESt4pairIKS5_St6vectorIN4CTPP11SymbolTableINS9_13CTPP2Compiler14SymbolTableRecEE12SymbolRecordISC_EESaISF_EEESt10_Select1stISI_ESt4lessIS5_ESaISI_EE8_M_eraseEPSt13_Rb_tree_nodeISI_E@Base 2.8.3
 (arch=!alpha !amd64 !arm64 !armel !armhf !hppa !hurd-i386 !i386 !kfreebsd-amd64 !kfreebsd-i386 !m68k !mips !mips64el !mipsel !powerpc !powerpcspe !ppc64 !ppc64el !riscv64 !s390x !sh4 !sparc64 !x32)_ZNSt8_Rb_treeINSt7__cxx1112basic_stringIcSt11char_traitsIcESaIcEEESt4pairIKS5_St6vectorIS5_SaIS5_EEESt10_Select1stISB_ESt4lessIS5_ESaISB_EE7_M_copyINSH_11_Alloc_nodeEEEPSt13_Rb_tree_nodeISB_EPKSL_SM_RT_@Base 2.8.3
 _ZNSt8_Rb_treeINSt7__cxx1112basic_stringIcSt11char_traitsIcESaIcEEESt4pairIKS5_St6vectorIS5_SaIS5_EEESt10_Select1stISB_ESt4lessIS5_ESaISB_EE8_M_eraseEPSt13_Rb_tree_nodeISB_E@Base 2.8.3
 _ZNSt8_Rb_treeINSt7__cxx1112basic_stringIcSt11char_traitsIcESaIcEEESt4pairIKS5_jESt10_Select1stIS8_EN4CTPP14SyscallFactory15HandlerRefsSortESaIS8_EE8_M_eraseEPSt13_Rb_tree_nodeIS8_E@Base 2.8.3
 (arch=!alpha !amd64 !arm64 !armel !armhf !hppa !hurd-i386 !i386 !kfreebsd-amd64 !kfreebsd-i386 !m68k !mips !mips64el !mipsel !powerpc !powerpcspe !ppc64 !ppc64el !riscv64 !s390x !sh4 !sparc64 !x32)_ZNSt8_Rb_treeINSt7__cxx1112basic_stringIcSt11char_traitsIcESaIcEEESt4pairIKS5_jESt10_Select1stIS8_ESt4lessIS5_ESaIS8_EE24_M_get_insert_unique_posERS7_@Base 2.8.3
 (optional=templinst|arch=alpha amd64 arm64 armel armhf hppa hurd-i386 i386 kfreebsd-amd64 kfreebsd-i386 m68k mips mips64el mipsel powerpc powerpcspe ppc64 ppc64el riscv64 s390x sh4 sparc64 x32)_ZNSt8_Rb_treeINSt7__cxx1112basic_stringIcSt11char_traitsIcESaIcEEESt4pairIKS5_jESt10_Select1stIS8_ESt4lessIS5_ESaIS8_EE7_M_copyINSE_11_Alloc_nodeEEEPSt13_Rb_tree_nodeIS8_EPKSI_PSt18_Rb_tree_node_baseRT_@Base 2.8.3
 (arch=!alpha !amd64 !arm64 !armel !armhf !hppa !hurd-i386 !i386 !kfreebsd-amd64 !kfreebsd-i386 !m68k !mips !mips64el !mipsel !powerpc !powerpcspe !ppc64 !ppc64el !riscv64 !s390x !sh4 !sparc64 !x32)_ZNSt8_Rb_treeINSt7__cxx1112basic_stringIcSt11char_traitsIcESaIcEEESt4pairIKS5_jESt10_Select1stIS8_ESt4lessIS5_ESaIS8_EE7_M_copyINSE_11_Alloc_nodeEEEPSt13_Rb_tree_nodeIS8_EPKSI_SJ_RT_@Base 2.8.3
 (optional=templinst|arch=alpha amd64 arm64 armel armhf hppa hurd-i386 i386 kfreebsd-amd64 kfreebsd-i386 m68k mips mips64el mipsel powerpc powerpcspe ppc64 ppc64el riscv64 s390x sh4 sparc64 x32)_ZNSt8_Rb_treeINSt7__cxx1112basic_stringIcSt11char_traitsIcESaIcEEESt4pairIKS5_jESt10_Select1stIS8_ESt4lessIS5_ESaIS8_EE7_M_copyINSE_20_Reuse_or_alloc_nodeEEEPSt13_Rb_tree_nodeIS8_EPKSI_PSt18_Rb_tree_node_baseRT_@Base 2.8.3
 (arch=!alpha !amd64 !arm64 !armel !armhf !hppa !hurd-i386 !i386 !kfreebsd-amd64 !kfreebsd-i386 !m68k !mips !mips64el !mipsel !powerpc !powerpcspe !ppc64 !ppc64el !riscv64 !s390x !sh4 !sparc64 !x32)_ZNSt8_Rb_treeINSt7__cxx1112basic_stringIcSt11char_traitsIcESaIcEEESt4pairIKS5_jESt10_Select1stIS8_ESt4lessIS5_ESaIS8_EE7_M_copyINSE_20_Reuse_or_alloc_nodeEEEPSt13_Rb_tree_nodeIS8_EPKSI_SJ_RT_@Base 2.8.3
 _ZNSt8_Rb_treeINSt7__cxx1112basic_stringIcSt11char_traitsIcESaIcEEESt4pairIKS5_jESt10_Select1stIS8_ESt4lessIS5_ESaIS8_EE8_M_eraseEPSt13_Rb_tree_nodeIS8_E@Base 2.8.3
 (optional=templinst|arch=ia64 s390)_ZNSt8_Rb_treeISsSt4pairIKSsN4CTPP12CTPP2GetText12CTPP2CatalogEESt10_Select1stIS5_ESt4lessISsESaIS5_EE10_M_insert_EPKSt18_Rb_tree_node_baseSE_RKS5_@Base 2.8.3
 (optional=templinst|arch=s390)_ZNSt8_Rb_treeISsSt4pairIKSsN4CTPP12CTPP2GetText12CTPP2CatalogEESt10_Select1stIS5_ESt4lessISsESaIS5_EE16_M_insert_uniqueERKS5_@Base 2.8.3
 (optional=templinst|arch=ia64 s390)_ZNSt8_Rb_treeISsSt4pairIKSsPvESt10_Select1stIS3_ESt4lessISsESaIS3_EE17_M_insert_unique_ESt23_Rb_tree_const_iteratorIS3_ERKS3_@Base 2.8.3
 (optional=templinst|arch=ia64 s390)_ZNSt8_Rb_treeISsSt4pairIKSsSt3mapISsN4CTPP12CTPP2GetText12CTPP2CatalogESt4lessISsESaIS0_IS1_S5_EEEESt10_Select1stISB_ES7_SaISB_EE10_M_insert_EPKSt18_Rb_tree_node_baseSI_RKSB_@Base 2.8.3
 (optional=templinst|arch=ia64 s390)_ZNSt8_Rb_treeISsSt4pairIKSsSt3mapISsN4CTPP12CTPP2GetText12CTPP2CatalogESt4lessISsESaIS0_IS1_S5_EEEESt10_Select1stISB_ES7_SaISB_EE16_M_insert_uniqueERKSB_@Base 2.8.3
 (optional=templinst|arch=ia64 s390)_ZNSt8_Rb_treeISsSt4pairIKSsSt6vectorISsSaISsEEESt10_Select1stIS5_ESt4lessISsESaIS5_EE10_M_insert_EPKSt18_Rb_tree_node_baseSE_RKS5_@Base 2.8.3
 (optional=templinst|arch=s390)_ZNSt8_Rb_treeISsSt4pairIKSsSt6vectorISsSaISsEEESt10_Select1stIS5_ESt4lessISsESaIS5_EE16_M_insert_uniqueERKS5_@Base 2.8.3
 (optional=templinst|arch=ia64 s390)_ZNSt8_Rb_treeISsSt4pairIKSsjESt10_Select1stIS2_ESt4lessISsESaIS2_EE17_M_insert_unique_ESt23_Rb_tree_const_iteratorIS2_ERKS2_@Base 2.8.3
 (optional=templinst|arch=ia64 s390)_ZSt10__pop_heapIN9__gnu_cxx17__normal_iteratorIPN4CTPP3CDTESt6vectorIS3_SaIS3_EEEENS2_10SortHelperEEvT_SA_SA_T0_@Base 2.8.3
 (optional=templinst|arch=!alpha !amd64 !arm64 !armel !armhf !hppa !hurd-i386 !i386 !ia64 !kfreebsd-amd64 !kfreebsd-i386 !m68k !mips !mips64el !mipsel !powerpc !powerpcspe !ppc64 !ppc64el !riscv64 !s390x !sh4 !sparc !sparc64 !x32)_ZSt16__introsort_loopIN9__gnu_cxx17__normal_iteratorIPN4CTPP3CDTESt6vectorIS3_SaIS3_EEEEiNS2_10SortHelperEEvT_SA_T0_T1_@Base 2.8.3
 (optional=templinst|arch=ia64)_ZSt16__introsort_loopIN9__gnu_cxx17__normal_iteratorIPN4CTPP3CDTESt6vectorIS3_SaIS3_EEEElNS2_10SortHelperEEvT_SA_T0_T1_@Base 2.8.3
 (optional=templinst|arch=alpha amd64 arm64 armel armhf hppa hurd-i386 i386 kfreebsd-amd64 kfreebsd-i386 m68k mips mips64el mipsel powerpc powerpcspe ppc64 ppc64el riscv64 s390x sh4 sparc sparc64 x32|subst)_ZSt16__introsort_loopIN9__gnu_cxx17__normal_iteratorIPN4CTPP3CDTESt6vectorIS3_SaIS3_EEEE{ssize_t}NS0_5__ops15_Iter_comp_iterINS2_10SortHelperEEEEvT_SD_T0_T1_@Base 2.8.3
 (optional=templinst|arch=ia64 s390)_ZSt8_DestroyIPN4CTPP3CDTEEvT_S3_@Base 2.8.3
 (optional=templinst|arch=amd64 arm64 kfreebsd-amd64 s390x x32)_ZStplIcSt11char_traitsIcESaIcEENSt7__cxx1112basic_stringIT_T0_T1_EEOS8_PKS5_@Base 2.8.3
 (optional=templinst|arch=amd64 arm64 kfreebsd-amd64 s390x x32)_ZStplIcSt11char_traitsIcESaIcEENSt7__cxx1112basic_stringIT_T0_T1_EEOS8_RKS8_@Base 2.8.3
 (arch=!alpha !amd64 !arm64 !armel !armhf !hppa !hurd-i386 !i386 !kfreebsd-amd64 !kfreebsd-i386 !m68k !mips !mips64el !mipsel !powerpc !powerpcspe !ppc64 !ppc64el !riscv64 !s390x !sh4 !sparc64 !x32)_ZStplIcSt11char_traitsIcESaIcEENSt7__cxx1112basic_stringIT_T0_T1_EERKS8_PKS5_@Base 2.8.3
 (arch=!alpha !amd64 !arm64 !armel !armhf !hppa !hurd-i386 !i386 !kfreebsd-amd64 !kfreebsd-i386 !m68k !mips !mips64el !mipsel !powerpc !powerpcspe !ppc64 !ppc64el !riscv64 !s390x !sh4 !sparc64 !x32)_ZStplIcSt11char_traitsIcESaIcEENSt7__cxx1112basic_stringIT_T0_T1_EERKS8_SA_@Base 2.8.3
 _ZTIN4CTPP10FileLoggerE@Base 2.8.3
 _ZTIN4CTPP10FnHashKeysE@Base 2.8.3
 _ZTIN4CTPP10FnHostnameE@Base 2.8.3
 _ZTIN4CTPP10FnTruncateE@Base 2.8.3
 _ZTIN4CTPP11FnFormParamE@Base 2.8.3
 _ZTIN4CTPP11FnHrefParamE@Base 2.8.3
 _ZTIN4CTPP11FnNumFormatE@Base 2.8.3
 _ZTIN4CTPP11FnSubstringE@Base 2.8.3
 _ZTIN4CTPP11FnURIEscapeE@Base 2.8.3
 _ZTIN4CTPP11FnURLEscapeE@Base 2.8.3
 _ZTIN4CTPP11FnWMLEscapeE@Base 2.8.3
 _ZTIN4CTPP11FnXMLEscapeE@Base 2.8.3
 _ZTIN4CTPP11InvalidCallE@Base 2.8.3
 _ZTIN4CTPP11VMExceptionE@Base 2.8.3
 _ZTIN4CTPP12FnDateFormatE@Base 2.8.3
 _ZTIN4CTPP12FnHTMLEscapeE@Base 2.8.3
 _ZTIN4CTPP12FnJSONEscapeE@Base 2.8.3
 _ZTIN4CTPP12FnMBTruncateE@Base 2.8.3
 _ZTIN4CTPP12VMFileLoaderE@Base 2.8.3
 _ZTIN4CTPP12ZeroDivisionE@Base 2.8.3
 _ZTIN4CTPP13CTPPExceptionE@Base 2.8.3
 _ZTIN4CTPP13FnListElementE@Base 2.8.3
 _ZTIN4CTPP13FnMBSubstringE@Base 2.8.3
 _ZTIN4CTPP13IllegalOpcodeE@Base 2.8.3
 _ZTIN4CTPP13StackOverflowE@Base 2.8.3
 _ZTIN4CTPP14CTPPLogicErrorE@Base 2.8.3
 _ZTIN4CTPP14FnBase64DecodeE@Base 2.8.3
 _ZTIN4CTPP14FnBase64EncodeE@Base 2.8.3
 _ZTIN4CTPP14InvalidSyscallE@Base 2.8.3
 _ZTIN4CTPP14SortCompareNumE@Base 2.8.3
 _ZTIN4CTPP14SortCompareStrE@Base 2.8.3
 _ZTIN4CTPP14StackUnderflowE@Base 2.8.3
 _ZTIN4CTPP14SyscallHandlerE@Base 2.8.3
 _ZTIN4CTPP15OutputCollectorE@Base 2.8.3
 _ZTIN4CTPP16CTPPGetTextErrorE@Base 2.8.3
 _ZTIN4CTPP17CDTRangeExceptionE@Base 2.8.3
 _ZTIN4CTPP17CTPP2SourceLoaderE@Base 2.8.3
 _ZTIN4CTPP17CTPPNoMemoryErrorE@Base 2.8.3
 _ZTIN4CTPP17CTPPUnixExceptionE@Base 2.8.3
 _ZTIN4CTPP18CDTAccessExceptionE@Base 2.8.3
 _ZTIN4CTPP18CodeSegmentOverrunE@Base 2.8.3
 _ZTIN4CTPP19CTPPParserExceptionE@Base 2.8.3
 _ZTIN4CTPP19FileOutputCollectorE@Base 2.8.3
 _ZTIN4CTPP20CDTTypeCastExceptionE@Base 2.8.3
 _ZTIN4CTPP21CTPP2FileSourceLoaderE@Base 2.8.3
 _ZTIN4CTPP21CTPPParserSyntaxErrorE@Base 2.8.3
 _ZTIN4CTPP21ExecutionLimitReachedE@Base 2.8.3
 _ZTIN4CTPP21StreamOutputCollectorE@Base 2.8.3
 _ZTIN4CTPP21StringOutputCollectorE@Base 2.8.3
 _ZTIN4CTPP24CTPPNullPointerExceptionE@Base 2.8.3
 _ZTIN4CTPP25SortCompareNumHashElementE@Base 2.8.3
 _ZTIN4CTPP25SortCompareStrHashElementE@Base 2.8.3
 _ZTIN4CTPP26CTPPCharsetRecodeExceptionE@Base 2.8.3
 _ZTIN4CTPP26SortCompareNumArrayElementE@Base 2.8.3
 _ZTIN4CTPP26SortCompareStrArrayElementE@Base 2.8.3
 _ZTIN4CTPP26StringIconvOutputCollectorE@Base 2.8.3
 _ZTIN4CTPP27CTPPParserOperatorsMismatchE@Base 2.8.3
 _ZTIN4CTPP3CDT17SortingComparatorE@Base 2.8.3
 _ZTIN4CTPP5FnAvgE@Base 2.8.3
 _ZTIN4CTPP5FnLogE@Base 2.8.3
 _ZTIN4CTPP5FnMaxE@Base 2.8.3
 _ZTIN4CTPP5FnMinE@Base 2.8.3
 _ZTIN4CTPP6FnCastE@Base 2.8.3
 _ZTIN4CTPP6FnJSONE@Base 2.8.3
 _ZTIN4CTPP6FnListE@Base 2.8.3
 _ZTIN4CTPP6FnSizeE@Base 2.8.3
 _ZTIN4CTPP6LoggerE@Base 2.8.3
 _ZTIN4CTPP7FnErrorE@Base 2.8.3
 _ZTIN4CTPP7FnIconvE@Base 2.8.3
 _ZTIN4CTPP7FnInSetE@Base 2.8.3
 _ZTIN4CTPP8FnConcatE@Base 2.8.3
 _ZTIN4CTPP8FnMBSizeE@Base 2.8.3
 _ZTIN4CTPP8FnRandomE@Base 2.8.3
 _ZTIN4CTPP8VMLoaderE@Base 2.8.3
 _ZTIN4CTPP9FnContextE@Base 2.8.3
 _ZTIN4CTPP9FnDefaultE@Base 2.8.3
 _ZTIN4CTPP9FnDefinedE@Base 2.8.3
 _ZTIN4CTPP9FnEmitterE@Base 2.8.3
 _ZTIN4CTPP9FnGetTextE@Base 2.8.3
 _ZTIN4CTPP9FnGetTypeE@Base 2.8.3
 _ZTIN4CTPP9FnInArrayE@Base 2.8.3
 _ZTIN4CTPP9FnObjDumpE@Base 2.8.3
 _ZTIN4CTPP9FnSprintfE@Base 2.8.3
 _ZTIN4CTPP9FnVersionE@Base 2.8.3
 _ZTSN4CTPP10FileLoggerE@Base 2.8.3
 _ZTSN4CTPP10FnHashKeysE@Base 2.8.3
 _ZTSN4CTPP10FnHostnameE@Base 2.8.3
 _ZTSN4CTPP10FnTruncateE@Base 2.8.3
 _ZTSN4CTPP11FnFormParamE@Base 2.8.3
 _ZTSN4CTPP11FnHrefParamE@Base 2.8.3
 _ZTSN4CTPP11FnNumFormatE@Base 2.8.3
 _ZTSN4CTPP11FnSubstringE@Base 2.8.3
 _ZTSN4CTPP11FnURIEscapeE@Base 2.8.3
 _ZTSN4CTPP11FnURLEscapeE@Base 2.8.3
 _ZTSN4CTPP11FnWMLEscapeE@Base 2.8.3
 _ZTSN4CTPP11FnXMLEscapeE@Base 2.8.3
 _ZTSN4CTPP11InvalidCallE@Base 2.8.3
 _ZTSN4CTPP11VMExceptionE@Base 2.8.3
 _ZTSN4CTPP12FnDateFormatE@Base 2.8.3
 _ZTSN4CTPP12FnHTMLEscapeE@Base 2.8.3
 _ZTSN4CTPP12FnJSONEscapeE@Base 2.8.3
 _ZTSN4CTPP12FnMBTruncateE@Base 2.8.3
 _ZTSN4CTPP12VMFileLoaderE@Base 2.8.3
 _ZTSN4CTPP12ZeroDivisionE@Base 2.8.3
 _ZTSN4CTPP13CTPPExceptionE@Base 2.8.3
 _ZTSN4CTPP13FnListElementE@Base 2.8.3
 _ZTSN4CTPP13FnMBSubstringE@Base 2.8.3
 _ZTSN4CTPP13IllegalOpcodeE@Base 2.8.3
 _ZTSN4CTPP13StackOverflowE@Base 2.8.3
 _ZTSN4CTPP14CTPPLogicErrorE@Base 2.8.3
 _ZTSN4CTPP14FnBase64DecodeE@Base 2.8.3
 _ZTSN4CTPP14FnBase64EncodeE@Base 2.8.3
 _ZTSN4CTPP14InvalidSyscallE@Base 2.8.3
 _ZTSN4CTPP14SortCompareNumE@Base 2.8.3
 _ZTSN4CTPP14SortCompareStrE@Base 2.8.3
 _ZTSN4CTPP14StackUnderflowE@Base 2.8.3
 _ZTSN4CTPP14SyscallHandlerE@Base 2.8.3
 _ZTSN4CTPP15OutputCollectorE@Base 2.8.3
 _ZTSN4CTPP16CTPPGetTextErrorE@Base 2.8.3
 _ZTSN4CTPP17CDTRangeExceptionE@Base 2.8.3
 _ZTSN4CTPP17CTPP2SourceLoaderE@Base 2.8.3
 _ZTSN4CTPP17CTPPNoMemoryErrorE@Base 2.8.3
 _ZTSN4CTPP17CTPPUnixExceptionE@Base 2.8.3
 _ZTSN4CTPP18CDTAccessExceptionE@Base 2.8.3
 _ZTSN4CTPP18CodeSegmentOverrunE@Base 2.8.3
 _ZTSN4CTPP19CTPPParserExceptionE@Base 2.8.3
 _ZTSN4CTPP19FileOutputCollectorE@Base 2.8.3
 _ZTSN4CTPP20CDTTypeCastExceptionE@Base 2.8.3
 _ZTSN4CTPP21CTPP2FileSourceLoaderE@Base 2.8.3
 _ZTSN4CTPP21CTPPParserSyntaxErrorE@Base 2.8.3
 _ZTSN4CTPP21ExecutionLimitReachedE@Base 2.8.3
 _ZTSN4CTPP21StreamOutputCollectorE@Base 2.8.3
 _ZTSN4CTPP21StringOutputCollectorE@Base 2.8.3
 _ZTSN4CTPP24CTPPNullPointerExceptionE@Base 2.8.3
 _ZTSN4CTPP25SortCompareNumHashElementE@Base 2.8.3
 _ZTSN4CTPP25SortCompareStrHashElementE@Base 2.8.3
 _ZTSN4CTPP26CTPPCharsetRecodeExceptionE@Base 2.8.3
 _ZTSN4CTPP26SortCompareNumArrayElementE@Base 2.8.3
 _ZTSN4CTPP26SortCompareStrArrayElementE@Base 2.8.3
 _ZTSN4CTPP26StringIconvOutputCollectorE@Base 2.8.3
 _ZTSN4CTPP27CTPPParserOperatorsMismatchE@Base 2.8.3
 _ZTSN4CTPP3CDT17SortingComparatorE@Base 2.8.3
 _ZTSN4CTPP5FnAvgE@Base 2.8.3
 _ZTSN4CTPP5FnLogE@Base 2.8.3
 _ZTSN4CTPP5FnMaxE@Base 2.8.3
 _ZTSN4CTPP5FnMinE@Base 2.8.3
 _ZTSN4CTPP6FnCastE@Base 2.8.3
 _ZTSN4CTPP6FnJSONE@Base 2.8.3
 _ZTSN4CTPP6FnListE@Base 2.8.3
 _ZTSN4CTPP6FnSizeE@Base 2.8.3
 _ZTSN4CTPP6LoggerE@Base 2.8.3
 _ZTSN4CTPP7FnErrorE@Base 2.8.3
 _ZTSN4CTPP7FnIconvE@Base 2.8.3
 _ZTSN4CTPP7FnInSetE@Base 2.8.3
 _ZTSN4CTPP8FnConcatE@Base 2.8.3
 _ZTSN4CTPP8FnMBSizeE@Base 2.8.3
 _ZTSN4CTPP8FnRandomE@Base 2.8.3
 _ZTSN4CTPP8VMLoaderE@Base 2.8.3
 _ZTSN4CTPP9FnContextE@Base 2.8.3
 _ZTSN4CTPP9FnDefaultE@Base 2.8.3
 _ZTSN4CTPP9FnDefinedE@Base 2.8.3
 _ZTSN4CTPP9FnEmitterE@Base 2.8.3
 _ZTSN4CTPP9FnGetTextE@Base 2.8.3
 _ZTSN4CTPP9FnGetTypeE@Base 2.8.3
 _ZTSN4CTPP9FnInArrayE@Base 2.8.3
 _ZTSN4CTPP9FnObjDumpE@Base 2.8.3
 _ZTSN4CTPP9FnSprintfE@Base 2.8.3
 _ZTSN4CTPP9FnVersionE@Base 2.8.3
 _ZTVN4CTPP10FileLoggerE@Base 2.8.3
 _ZTVN4CTPP10FnHashKeysE@Base 2.8.3
 _ZTVN4CTPP10FnHostnameE@Base 2.8.3
 _ZTVN4CTPP10FnTruncateE@Base 2.8.3
 _ZTVN4CTPP11FnFormParamE@Base 2.8.3
 _ZTVN4CTPP11FnHrefParamE@Base 2.8.3
 _ZTVN4CTPP11FnNumFormatE@Base 2.8.3
 _ZTVN4CTPP11FnSubstringE@Base 2.8.3
 _ZTVN4CTPP11FnURIEscapeE@Base 2.8.3
 _ZTVN4CTPP11FnURLEscapeE@Base 2.8.3
 _ZTVN4CTPP11FnWMLEscapeE@Base 2.8.3
 _ZTVN4CTPP11FnXMLEscapeE@Base 2.8.3
 _ZTVN4CTPP11InvalidCallE@Base 2.8.3
 _ZTVN4CTPP11VMExceptionE@Base 2.8.3
 _ZTVN4CTPP12FnDateFormatE@Base 2.8.3
 _ZTVN4CTPP12FnHTMLEscapeE@Base 2.8.3
 _ZTVN4CTPP12FnJSONEscapeE@Base 2.8.3
 _ZTVN4CTPP12FnMBTruncateE@Base 2.8.3
 _ZTVN4CTPP12VMFileLoaderE@Base 2.8.3
 _ZTVN4CTPP12ZeroDivisionE@Base 2.8.3
 _ZTVN4CTPP13CTPPExceptionE@Base 2.8.3
 _ZTVN4CTPP13FnListElementE@Base 2.8.3
 _ZTVN4CTPP13FnMBSubstringE@Base 2.8.3
 _ZTVN4CTPP13IllegalOpcodeE@Base 2.8.3
 _ZTVN4CTPP13StackOverflowE@Base 2.8.3
 _ZTVN4CTPP14CTPPLogicErrorE@Base 2.8.3
 _ZTVN4CTPP14FnBase64DecodeE@Base 2.8.3
 _ZTVN4CTPP14FnBase64EncodeE@Base 2.8.3
 _ZTVN4CTPP14InvalidSyscallE@Base 2.8.3
 _ZTVN4CTPP14SortCompareNumE@Base 2.8.3
 _ZTVN4CTPP14SortCompareStrE@Base 2.8.3
 _ZTVN4CTPP14StackUnderflowE@Base 2.8.3
 _ZTVN4CTPP14SyscallHandlerE@Base 2.8.3
 _ZTVN4CTPP16CTPPGetTextErrorE@Base 2.8.3
 _ZTVN4CTPP17CDTRangeExceptionE@Base 2.8.3
 _ZTVN4CTPP17CTPPNoMemoryErrorE@Base 2.8.3
 _ZTVN4CTPP17CTPPUnixExceptionE@Base 2.8.3
 _ZTVN4CTPP18CDTAccessExceptionE@Base 2.8.3
 _ZTVN4CTPP18CodeSegmentOverrunE@Base 2.8.3
 _ZTVN4CTPP19CTPPParserExceptionE@Base 2.8.3
 _ZTVN4CTPP19FileOutputCollectorE@Base 2.8.3
 _ZTVN4CTPP20CDTTypeCastExceptionE@Base 2.8.3
 _ZTVN4CTPP21CTPP2FileSourceLoaderE@Base 2.8.3
 _ZTVN4CTPP21CTPPParserSyntaxErrorE@Base 2.8.3
 _ZTVN4CTPP21ExecutionLimitReachedE@Base 2.8.3
 _ZTVN4CTPP21StreamOutputCollectorE@Base 2.8.3
 _ZTVN4CTPP21StringOutputCollectorE@Base 2.8.3
 _ZTVN4CTPP24CTPPNullPointerExceptionE@Base 2.8.3
 _ZTVN4CTPP25SortCompareNumHashElementE@Base 2.8.3
 _ZTVN4CTPP25SortCompareStrHashElementE@Base 2.8.3
 _ZTVN4CTPP26CTPPCharsetRecodeExceptionE@Base 2.8.3
 _ZTVN4CTPP26SortCompareNumArrayElementE@Base 2.8.3
 _ZTVN4CTPP26SortCompareStrArrayElementE@Base 2.8.3
 _ZTVN4CTPP26StringIconvOutputCollectorE@Base 2.8.3
 _ZTVN4CTPP27CTPPParserOperatorsMismatchE@Base 2.8.3
 _ZTVN4CTPP3CDT17SortingComparatorE@Base 2.8.3
 _ZTVN4CTPP5FnAvgE@Base 2.8.3
 _ZTVN4CTPP5FnLogE@Base 2.8.3
 _ZTVN4CTPP5FnMaxE@Base 2.8.3
 _ZTVN4CTPP5FnMinE@Base 2.8.3
 _ZTVN4CTPP6FnCastE@Base 2.8.3
 _ZTVN4CTPP6FnJSONE@Base 2.8.3
 _ZTVN4CTPP6FnListE@Base 2.8.3
 _ZTVN4CTPP6FnSizeE@Base 2.8.3
 _ZTVN4CTPP6LoggerE@Base 2.8.3
 _ZTVN4CTPP7FnErrorE@Base 2.8.3
 _ZTVN4CTPP7FnIconvE@Base 2.8.3
 _ZTVN4CTPP7FnInSetE@Base 2.8.3
 _ZTVN4CTPP8FnConcatE@Base 2.8.3
 _ZTVN4CTPP8FnMBSizeE@Base 2.8.3
 _ZTVN4CTPP8FnRandomE@Base 2.8.3
 _ZTVN4CTPP9FnContextE@Base 2.8.3
 _ZTVN4CTPP9FnDefaultE@Base 2.8.3
 _ZTVN4CTPP9FnDefinedE@Base 2.8.3
 _ZTVN4CTPP9FnEmitterE@Base 2.8.3
 _ZTVN4CTPP9FnGetTextE@Base 2.8.3
 _ZTVN4CTPP9FnGetTypeE@Base 2.8.3
 _ZTVN4CTPP9FnInArrayE@Base 2.8.3
 _ZTVN4CTPP9FnObjDumpE@Base 2.8.3
 _ZTVN4CTPP9FnSprintfE@Base 2.8.3
 _ZTVN4CTPP9FnVersionE@Base 2.8.3
